
CarParking.elf:     file format elf32-avr

Sections:
Idx Name          Size      VMA       LMA       File off  Algn
  0 .text         000031aa  00000000  00000000  00000094  2**1
                  CONTENTS, ALLOC, LOAD, READONLY, CODE
  1 .data         00000036  00800060  000031aa  0000323e  2**0
                  CONTENTS, ALLOC, LOAD, DATA
  2 .bss          00000005  00800096  00800096  00003274  2**0
                  ALLOC
  3 .stab         00003f48  00000000  00000000  00003274  2**2
                  CONTENTS, READONLY, DEBUGGING
  4 .stabstr      0000164e  00000000  00000000  000071bc  2**0
                  CONTENTS, READONLY, DEBUGGING
  5 .comment      00000026  00000000  00000000  0000880a  2**0
                  CONTENTS, READONLY
  6 .note.gnu.avr.deviceinfo 0000003c  00000000  00000000  00008830  2**2
                  CONTENTS, READONLY, OCTETS
  7 .debug_aranges 00000060  00000000  00000000  00008870  2**3
                  CONTENTS, READONLY, DEBUGGING, OCTETS
  8 .debug_info   00000558  00000000  00000000  000088d0  2**0
                  CONTENTS, READONLY, DEBUGGING, OCTETS
  9 .debug_abbrev 000004df  00000000  00000000  00008e28  2**0
                  CONTENTS, READONLY, DEBUGGING, OCTETS
 10 .debug_line   00000191  00000000  00000000  00009307  2**0
                  CONTENTS, READONLY, DEBUGGING, OCTETS
 11 .debug_str    00000219  00000000  00000000  00009498  2**0
                  CONTENTS, READONLY, DEBUGGING, OCTETS

Disassembly of section .text:

00000000 <__vectors>:
       0:	0c 94 2a 00 	jmp	0x54	; 0x54 <__ctors_end>
       4:	0c 94 47 00 	jmp	0x8e	; 0x8e <__bad_interrupt>
       8:	0c 94 47 00 	jmp	0x8e	; 0x8e <__bad_interrupt>
       c:	0c 94 47 00 	jmp	0x8e	; 0x8e <__bad_interrupt>
      10:	0c 94 47 00 	jmp	0x8e	; 0x8e <__bad_interrupt>
      14:	0c 94 47 00 	jmp	0x8e	; 0x8e <__bad_interrupt>
      18:	0c 94 b7 06 	jmp	0xd6e	; 0xd6e <__vector_6>
      1c:	0c 94 47 00 	jmp	0x8e	; 0x8e <__bad_interrupt>
      20:	0c 94 47 00 	jmp	0x8e	; 0x8e <__bad_interrupt>
      24:	0c 94 47 00 	jmp	0x8e	; 0x8e <__bad_interrupt>
      28:	0c 94 47 00 	jmp	0x8e	; 0x8e <__bad_interrupt>
      2c:	0c 94 47 00 	jmp	0x8e	; 0x8e <__bad_interrupt>
      30:	0c 94 47 00 	jmp	0x8e	; 0x8e <__bad_interrupt>
      34:	0c 94 47 00 	jmp	0x8e	; 0x8e <__bad_interrupt>
      38:	0c 94 47 00 	jmp	0x8e	; 0x8e <__bad_interrupt>
      3c:	0c 94 47 00 	jmp	0x8e	; 0x8e <__bad_interrupt>
      40:	0c 94 47 00 	jmp	0x8e	; 0x8e <__bad_interrupt>
      44:	0c 94 47 00 	jmp	0x8e	; 0x8e <__bad_interrupt>
      48:	0c 94 47 00 	jmp	0x8e	; 0x8e <__bad_interrupt>
      4c:	0c 94 47 00 	jmp	0x8e	; 0x8e <__bad_interrupt>
      50:	0c 94 47 00 	jmp	0x8e	; 0x8e <__bad_interrupt>

00000054 <__ctors_end>:
      54:	11 24       	eor	r1, r1
      56:	1f be       	out	0x3f, r1	; 63
      58:	cf e5       	ldi	r28, 0x5F	; 95
      5a:	d8 e0       	ldi	r29, 0x08	; 8
      5c:	de bf       	out	0x3e, r29	; 62
      5e:	cd bf       	out	0x3d, r28	; 61

00000060 <__do_copy_data>:
      60:	10 e0       	ldi	r17, 0x00	; 0

00000062 <.Loc.1>:
      62:	a0 e6       	ldi	r26, 0x60	; 96

00000064 <.Loc.2>:
      64:	b0 e0       	ldi	r27, 0x00	; 0

00000066 <.Loc.3>:
      66:	ea ea       	ldi	r30, 0xAA	; 170

00000068 <.Loc.4>:
      68:	f1 e3       	ldi	r31, 0x31	; 49

0000006a <.Loc.5>:
      6a:	02 c0       	rjmp	.+4      	; 0x70 <.L__do_copy_data_start>

0000006c <.L__do_copy_data_loop>:
      6c:	05 90       	lpm	r0, Z+

0000006e <.Loc.7>:
      6e:	0d 92       	st	X+, r0

00000070 <.L__do_copy_data_start>:
      70:	a6 39       	cpi	r26, 0x96	; 150

00000072 <.Loc.9>:
      72:	b1 07       	cpc	r27, r17

00000074 <.Loc.10>:
      74:	d9 f7       	brne	.-10     	; 0x6c <.L__do_copy_data_loop>

00000076 <__do_clear_bss>:
      76:	20 e0       	ldi	r18, 0x00	; 0

00000078 <.Loc.1>:
      78:	a6 e9       	ldi	r26, 0x96	; 150

0000007a <.Loc.2>:
      7a:	b0 e0       	ldi	r27, 0x00	; 0

0000007c <.Loc.3>:
      7c:	01 c0       	rjmp	.+2      	; 0x80 <.Loc.5>

0000007e <.Loc.4>:
      7e:	1d 92       	st	X+, r1

00000080 <.Loc.5>:
      80:	ab 39       	cpi	r26, 0x9B	; 155

00000082 <.Loc.6>:
      82:	b2 07       	cpc	r27, r18

00000084 <.Loc.7>:
      84:	e1 f7       	brne	.-8      	; 0x7e <.Loc.4>

00000086 <L0^A>:
      86:	0e 94 2b 02 	call	0x456	; 0x456 <main>
      8a:	0c 94 d3 18 	jmp	0x31a6	; 0x31a6 <_exit>

0000008e <__bad_interrupt>:
      8e:	0c 94 00 00 	jmp	0	; 0x0 <__vectors>

00000092 <Ultrasonic_init>:
      92:	cf 93       	push	r28
      94:	df 93       	push	r29
      96:	00 d0       	rcall	.+0      	; 0x98 <L0^A>

00000098 <L0^A>:
      98:	cd b7       	in	r28, 0x3d	; 61
      9a:	de b7       	in	r29, 0x3e	; 62

0000009c <.LM1>:
      9c:	41 e0       	ldi	r20, 0x01	; 1
      9e:	67 e0       	ldi	r22, 0x07	; 7
      a0:	83 e0       	ldi	r24, 0x03	; 3
      a2:	0e 94 95 03 	call	0x72a	; 0x72a <GPIO_setupPinDirection>

000000a6 <.LM2>:
      a6:	82 e0       	ldi	r24, 0x02	; 2
      a8:	89 83       	std	Y+1, r24	; 0x01
      aa:	81 e0       	ldi	r24, 0x01	; 1
      ac:	8a 83       	std	Y+2, r24	; 0x02

000000ae <.LM3>:
      ae:	ce 01       	movw	r24, r28
      b0:	01 96       	adiw	r24, 0x01	; 1
      b2:	0e 94 ec 06 	call	0xdd8	; 0xdd8 <ICU_init>

000000b6 <.LM4>:
      b6:	85 e0       	ldi	r24, 0x05	; 5
      b8:	92 e0       	ldi	r25, 0x02	; 2
      ba:	0e 94 44 07 	call	0xe88	; 0xe88 <ICU_setCallBack>

000000be <.LM5>:
      be:	00 00       	nop
      c0:	0f 90       	pop	r0
      c2:	0f 90       	pop	r0
      c4:	df 91       	pop	r29
      c6:	cf 91       	pop	r28
      c8:	08 95       	ret

000000ca <Ultrasonic_Trigger>:
      ca:	cf 93       	push	r28
      cc:	df 93       	push	r29
      ce:	cd b7       	in	r28, 0x3d	; 61
      d0:	de b7       	in	r29, 0x3e	; 62
      d2:	c8 54       	subi	r28, 0x48	; 72
      d4:	d1 09       	sbc	r29, r1
      d6:	0f b6       	in	r0, 0x3f	; 63
      d8:	f8 94       	cli
      da:	de bf       	out	0x3e, r29	; 62
      dc:	0f be       	out	0x3f, r0	; 63
      de:	cd bf       	out	0x3d, r28	; 61

000000e0 <.LM7>:
      e0:	41 e0       	ldi	r20, 0x01	; 1
      e2:	67 e0       	ldi	r22, 0x07	; 7
      e4:	83 e0       	ldi	r24, 0x03	; 3
      e6:	0e 94 86 04 	call	0x90c	; 0x90c <GPIO_writePin>
      ea:	80 e0       	ldi	r24, 0x00	; 0
      ec:	90 e0       	ldi	r25, 0x00	; 0
      ee:	a0 ea       	ldi	r26, 0xA0	; 160
      f0:	b1 e4       	ldi	r27, 0x41	; 65
      f2:	89 83       	std	Y+1, r24	; 0x01
      f4:	9a 83       	std	Y+2, r25	; 0x02
      f6:	ab 83       	std	Y+3, r26	; 0x03
      f8:	bc 83       	std	Y+4, r27	; 0x04

000000fa <.LM8>:
      fa:	2b ea       	ldi	r18, 0xAB	; 171
      fc:	3a ea       	ldi	r19, 0xAA	; 170
      fe:	4a ea       	ldi	r20, 0xAA	; 170
     100:	50 e4       	ldi	r21, 0x40	; 64
     102:	69 81       	ldd	r22, Y+1	; 0x01
     104:	7a 81       	ldd	r23, Y+2	; 0x02
     106:	8b 81       	ldd	r24, Y+3	; 0x03
     108:	9c 81       	ldd	r25, Y+4	; 0x04
     10a:	0e 94 26 18 	call	0x304c	; 0x304c <__mulsf3>
     10e:	6d a3       	std	Y+37, r22	; 0x25
     110:	7e a3       	std	Y+38, r23	; 0x26
     112:	8f a3       	std	Y+39, r24	; 0x27
     114:	98 a7       	std	Y+40, r25	; 0x28
     116:	8d a1       	ldd	r24, Y+37	; 0x25
     118:	9e a1       	ldd	r25, Y+38	; 0x26
     11a:	af a1       	ldd	r26, Y+39	; 0x27
     11c:	b8 a5       	ldd	r27, Y+40	; 0x28
     11e:	8d 83       	std	Y+5, r24	; 0x05
     120:	9e 83       	std	Y+6, r25	; 0x06
     122:	af 83       	std	Y+7, r26	; 0x07
     124:	b8 87       	std	Y+8, r27	; 0x08

00000126 <.LM9>:
     126:	20 e0       	ldi	r18, 0x00	; 0
     128:	30 e0       	ldi	r19, 0x00	; 0
     12a:	40 e8       	ldi	r20, 0x80	; 128
     12c:	50 e4       	ldi	r21, 0x40	; 64
     12e:	69 81       	ldd	r22, Y+1	; 0x01
     130:	7a 81       	ldd	r23, Y+2	; 0x02
     132:	8b 81       	ldd	r24, Y+3	; 0x03
     134:	9c 81       	ldd	r25, Y+4	; 0x04
     136:	0e 94 26 18 	call	0x304c	; 0x304c <__mulsf3>
     13a:	69 a7       	std	Y+41, r22	; 0x29
     13c:	7a a7       	std	Y+42, r23	; 0x2a
     13e:	8b a7       	std	Y+43, r24	; 0x2b
     140:	9c a7       	std	Y+44, r25	; 0x2c
     142:	89 a5       	ldd	r24, Y+41	; 0x29
     144:	9a a5       	ldd	r25, Y+42	; 0x2a
     146:	ab a5       	ldd	r26, Y+43	; 0x2b
     148:	bc a5       	ldd	r27, Y+44	; 0x2c
     14a:	89 87       	std	Y+9, r24	; 0x09
     14c:	9a 87       	std	Y+10, r25	; 0x0a
     14e:	ab 87       	std	Y+11, r26	; 0x0b
     150:	bc 87       	std	Y+12, r27	; 0x0c

00000152 <.LM10>:
     152:	20 e0       	ldi	r18, 0x00	; 0
     154:	30 e0       	ldi	r19, 0x00	; 0
     156:	40 e8       	ldi	r20, 0x80	; 128
     158:	5f e3       	ldi	r21, 0x3F	; 63
     15a:	6d 81       	ldd	r22, Y+5	; 0x05
     15c:	7e 81       	ldd	r23, Y+6	; 0x06
     15e:	8f 81       	ldd	r24, Y+7	; 0x07
     160:	98 85       	ldd	r25, Y+8	; 0x08
     162:	0e 94 c9 16 	call	0x2d92	; 0x2d92 <__cmpsf2>
     166:	88 23       	and	r24, r24
     168:	1c f4       	brge	.+6      	; 0x170 <.L24>

0000016a <.LM11>:
     16a:	81 e0       	ldi	r24, 0x01	; 1
     16c:	8d 87       	std	Y+13, r24	; 0x0d
     16e:	e6 c0       	rjmp	.+460    	; 0x33c <.L5>

00000170 <.L24>:
     170:	20 e0       	ldi	r18, 0x00	; 0
     172:	3f ef       	ldi	r19, 0xFF	; 255
     174:	4f e7       	ldi	r20, 0x7F	; 127
     176:	57 e4       	ldi	r21, 0x47	; 71
     178:	69 85       	ldd	r22, Y+9	; 0x09
     17a:	7a 85       	ldd	r23, Y+10	; 0x0a
     17c:	8b 85       	ldd	r24, Y+11	; 0x0b
     17e:	9c 85       	ldd	r25, Y+12	; 0x0c
     180:	0e 94 21 18 	call	0x3042	; 0x3042 <__gesf2>
     184:	18 16       	cp	r1, r24
     186:	0c f0       	brlt	.+2      	; 0x18a <.LM13>

00000188 <L0^A>:
     188:	9f c0       	rjmp	.+318    	; 0x2c8 <.L25>

0000018a <.LM13>:
     18a:	20 e0       	ldi	r18, 0x00	; 0
     18c:	30 e0       	ldi	r19, 0x00	; 0
     18e:	4a e7       	ldi	r20, 0x7A	; 122
     190:	54 e4       	ldi	r21, 0x44	; 68
     192:	69 81       	ldd	r22, Y+1	; 0x01
     194:	7a 81       	ldd	r23, Y+2	; 0x02
     196:	8b 81       	ldd	r24, Y+3	; 0x03
     198:	9c 81       	ldd	r25, Y+4	; 0x04
     19a:	0e 94 ce 16 	call	0x2d9c	; 0x2d9c <__divsf3>
     19e:	6d a7       	std	Y+45, r22	; 0x2d
     1a0:	7e a7       	std	Y+46, r23	; 0x2e
     1a2:	8f a7       	std	Y+47, r24	; 0x2f
     1a4:	98 ab       	std	Y+48, r25	; 0x30
     1a6:	8d a5       	ldd	r24, Y+45	; 0x2d
     1a8:	9e a5       	ldd	r25, Y+46	; 0x2e
     1aa:	af a5       	ldd	r26, Y+47	; 0x2f
     1ac:	b8 a9       	ldd	r27, Y+48	; 0x30
     1ae:	8e 87       	std	Y+14, r24	; 0x0e
     1b0:	9f 87       	std	Y+15, r25	; 0x0f
     1b2:	a8 8b       	std	Y+16, r26	; 0x10
     1b4:	b9 8b       	std	Y+17, r27	; 0x11

000001b6 <.LM14>:
     1b6:	20 e0       	ldi	r18, 0x00	; 0
     1b8:	30 e0       	ldi	r19, 0x00	; 0
     1ba:	4a e7       	ldi	r20, 0x7A	; 122
     1bc:	55 e4       	ldi	r21, 0x45	; 69
     1be:	6e 85       	ldd	r22, Y+14	; 0x0e
     1c0:	7f 85       	ldd	r23, Y+15	; 0x0f
     1c2:	88 89       	ldd	r24, Y+16	; 0x10
     1c4:	99 89       	ldd	r25, Y+17	; 0x11
     1c6:	0e 94 26 18 	call	0x304c	; 0x304c <__mulsf3>
     1ca:	69 ab       	std	Y+49, r22	; 0x31
     1cc:	7a ab       	std	Y+50, r23	; 0x32
     1ce:	8b ab       	std	Y+51, r24	; 0x33
     1d0:	9c ab       	std	Y+52, r25	; 0x34
     1d2:	89 a9       	ldd	r24, Y+49	; 0x31
     1d4:	9a a9       	ldd	r25, Y+50	; 0x32
     1d6:	ab a9       	ldd	r26, Y+51	; 0x33
     1d8:	bc a9       	ldd	r27, Y+52	; 0x34
     1da:	8a 8b       	std	Y+18, r24	; 0x12
     1dc:	9b 8b       	std	Y+19, r25	; 0x13
     1de:	ac 8b       	std	Y+20, r26	; 0x14
     1e0:	bd 8b       	std	Y+21, r27	; 0x15

000001e2 <.LM15>:
     1e2:	20 e0       	ldi	r18, 0x00	; 0
     1e4:	30 e0       	ldi	r19, 0x00	; 0
     1e6:	40 e8       	ldi	r20, 0x80	; 128
     1e8:	5f e3       	ldi	r21, 0x3F	; 63
     1ea:	6a 89       	ldd	r22, Y+18	; 0x12
     1ec:	7b 89       	ldd	r23, Y+19	; 0x13
     1ee:	8c 89       	ldd	r24, Y+20	; 0x14
     1f0:	9d 89       	ldd	r25, Y+21	; 0x15
     1f2:	0e 94 c9 16 	call	0x2d92	; 0x2d92 <__cmpsf2>
     1f6:	88 23       	and	r24, r24
     1f8:	2c f4       	brge	.+10     	; 0x204 <.L26>

000001fa <.LM16>:
     1fa:	81 e0       	ldi	r24, 0x01	; 1
     1fc:	90 e0       	ldi	r25, 0x00	; 0
     1fe:	9f 8b       	std	Y+23, r25	; 0x17
     200:	8e 8b       	std	Y+22, r24	; 0x16
     202:	56 c0       	rjmp	.+172    	; 0x2b0 <.L10>

00000204 <.L26>:
     204:	20 e0       	ldi	r18, 0x00	; 0
     206:	3f ef       	ldi	r19, 0xFF	; 255
     208:	4f e7       	ldi	r20, 0x7F	; 127
     20a:	57 e4       	ldi	r21, 0x47	; 71
     20c:	6a 89       	ldd	r22, Y+18	; 0x12
     20e:	7b 89       	ldd	r23, Y+19	; 0x13
     210:	8c 89       	ldd	r24, Y+20	; 0x14
     212:	9d 89       	ldd	r25, Y+21	; 0x15
     214:	0e 94 21 18 	call	0x3042	; 0x3042 <__gesf2>
     218:	18 16       	cp	r1, r24
     21a:	d4 f5       	brge	.+116    	; 0x290 <.L27>

0000021c <.LM18>:
     21c:	20 e0       	ldi	r18, 0x00	; 0
     21e:	30 e0       	ldi	r19, 0x00	; 0
     220:	40 e2       	ldi	r20, 0x20	; 32
     222:	51 e4       	ldi	r21, 0x41	; 65
     224:	6e 85       	ldd	r22, Y+14	; 0x0e
     226:	7f 85       	ldd	r23, Y+15	; 0x0f
     228:	88 89       	ldd	r24, Y+16	; 0x10
     22a:	99 89       	ldd	r25, Y+17	; 0x11
     22c:	0e 94 26 18 	call	0x304c	; 0x304c <__mulsf3>
     230:	6d ab       	std	Y+53, r22	; 0x35
     232:	7e ab       	std	Y+54, r23	; 0x36
     234:	8f ab       	std	Y+55, r24	; 0x37
     236:	98 af       	std	Y+56, r25	; 0x38
     238:	8d a9       	ldd	r24, Y+53	; 0x35
     23a:	9e a9       	ldd	r25, Y+54	; 0x36
     23c:	af a9       	ldd	r26, Y+55	; 0x37
     23e:	b8 ad       	ldd	r27, Y+56	; 0x38
     240:	89 a3       	std	Y+33, r24	; 0x21
     242:	9a a3       	std	Y+34, r25	; 0x22
     244:	ab a3       	std	Y+35, r26	; 0x23
     246:	bc a3       	std	Y+36, r27	; 0x24

00000248 <.LM19>:
     248:	69 a1       	ldd	r22, Y+33	; 0x21
     24a:	7a a1       	ldd	r23, Y+34	; 0x22
     24c:	8b a1       	ldd	r24, Y+35	; 0x23
     24e:	9c a1       	ldd	r25, Y+36	; 0x24
     250:	0e 94 40 17 	call	0x2e80	; 0x2e80 <__fixunssfsi>
     254:	69 af       	std	Y+57, r22	; 0x39
     256:	7a af       	std	Y+58, r23	; 0x3a
     258:	8b af       	std	Y+59, r24	; 0x3b
     25a:	9c af       	std	Y+60, r25	; 0x3c
     25c:	a9 ad       	ldd	r26, Y+57	; 0x39
     25e:	ba ad       	ldd	r27, Y+58	; 0x3a
     260:	bf 8b       	std	Y+23, r27	; 0x17
     262:	ae 8b       	std	Y+22, r26	; 0x16

00000264 <.LM20>:
     264:	10 c0       	rjmp	.+32     	; 0x286 <.L13>

00000266 <.L14>:
     266:	80 e9       	ldi	r24, 0x90	; 144
     268:	91 e0       	ldi	r25, 0x01	; 1
     26a:	99 8f       	std	Y+25, r25	; 0x19
     26c:	88 8f       	std	Y+24, r24	; 0x18

0000026e <.LM21>:
     26e:	88 8d       	ldd	r24, Y+24	; 0x18
     270:	99 8d       	ldd	r25, Y+25	; 0x19

00000272 <.L1^B1>:
     272:	01 97       	sbiw	r24, 0x01	; 1
     274:	f1 f7       	brne	.-4      	; 0x272 <.L1^B1>
     276:	99 8f       	std	Y+25, r25	; 0x19
     278:	88 8f       	std	Y+24, r24	; 0x18

0000027a <.LM22>:
	...

0000027c <.LM23>:
     27c:	8e 89       	ldd	r24, Y+22	; 0x16
     27e:	9f 89       	ldd	r25, Y+23	; 0x17
     280:	01 97       	sbiw	r24, 0x01	; 1
     282:	9f 8b       	std	Y+23, r25	; 0x17
     284:	8e 8b       	std	Y+22, r24	; 0x16

00000286 <.L13>:
     286:	8e 89       	ldd	r24, Y+22	; 0x16
     288:	9f 89       	ldd	r25, Y+23	; 0x17
     28a:	89 2b       	or	r24, r25
     28c:	61 f7       	brne	.-40     	; 0x266 <.L14>

0000028e <.LM25>:
     28e:	1b c0       	rjmp	.+54     	; 0x2c6 <.L15>

00000290 <.L27>:
     290:	6a 89       	ldd	r22, Y+18	; 0x12
     292:	7b 89       	ldd	r23, Y+19	; 0x13
     294:	8c 89       	ldd	r24, Y+20	; 0x14
     296:	9d 89       	ldd	r25, Y+21	; 0x15
     298:	0e 94 40 17 	call	0x2e80	; 0x2e80 <__fixunssfsi>
     29c:	21 96       	adiw	r28, 0x01	; 1
     29e:	6c af       	std	Y+60, r22	; 0x3c
     2a0:	7d af       	std	Y+61, r23	; 0x3d
     2a2:	8e af       	std	Y+62, r24	; 0x3e
     2a4:	9f af       	std	Y+63, r25	; 0x3f
     2a6:	21 97       	sbiw	r28, 0x01	; 1
     2a8:	8d ad       	ldd	r24, Y+61	; 0x3d
     2aa:	9e ad       	ldd	r25, Y+62	; 0x3e
     2ac:	9f 8b       	std	Y+23, r25	; 0x17
     2ae:	8e 8b       	std	Y+22, r24	; 0x16

000002b0 <.L10>:
     2b0:	8e 89       	ldd	r24, Y+22	; 0x16
     2b2:	9f 89       	ldd	r25, Y+23	; 0x17
     2b4:	9b 8f       	std	Y+27, r25	; 0x1b
     2b6:	8a 8f       	std	Y+26, r24	; 0x1a

000002b8 <.LM27>:
     2b8:	8a 8d       	ldd	r24, Y+26	; 0x1a
     2ba:	9b 8d       	ldd	r25, Y+27	; 0x1b

000002bc <.L1^B2>:
     2bc:	01 97       	sbiw	r24, 0x01	; 1
     2be:	f1 f7       	brne	.-4      	; 0x2bc <.L1^B2>
     2c0:	9b 8f       	std	Y+27, r25	; 0x1b
     2c2:	8a 8f       	std	Y+26, r24	; 0x1a

000002c4 <.LM28>:
	...

000002c6 <.L15>:
     2c6:	41 c0       	rjmp	.+130    	; 0x34a <.L16>

000002c8 <.L25>:
     2c8:	20 e0       	ldi	r18, 0x00	; 0
     2ca:	30 e0       	ldi	r19, 0x00	; 0
     2cc:	4f e7       	ldi	r20, 0x7F	; 127
     2ce:	53 e4       	ldi	r21, 0x43	; 67
     2d0:	6d 81       	ldd	r22, Y+5	; 0x05
     2d2:	7e 81       	ldd	r23, Y+6	; 0x06
     2d4:	8f 81       	ldd	r24, Y+7	; 0x07
     2d6:	98 85       	ldd	r25, Y+8	; 0x08
     2d8:	0e 94 21 18 	call	0x3042	; 0x3042 <__gesf2>
     2dc:	18 16       	cp	r1, r24
     2de:	f4 f4       	brge	.+60     	; 0x31c <.L28>

000002e0 <.LM31>:
     2e0:	69 85       	ldd	r22, Y+9	; 0x09
     2e2:	7a 85       	ldd	r23, Y+10	; 0x0a
     2e4:	8b 85       	ldd	r24, Y+11	; 0x0b
     2e6:	9c 85       	ldd	r25, Y+12	; 0x0c
     2e8:	0e 94 40 17 	call	0x2e80	; 0x2e80 <__fixunssfsi>
     2ec:	25 96       	adiw	r28, 0x05	; 5
     2ee:	6c af       	std	Y+60, r22	; 0x3c
     2f0:	7d af       	std	Y+61, r23	; 0x3d
     2f2:	8e af       	std	Y+62, r24	; 0x3e
     2f4:	9f af       	std	Y+63, r25	; 0x3f
     2f6:	25 97       	sbiw	r28, 0x05	; 5
     2f8:	23 96       	adiw	r28, 0x03	; 3
     2fa:	ae ad       	ldd	r26, Y+62	; 0x3e
     2fc:	bf ad       	ldd	r27, Y+63	; 0x3f
     2fe:	23 97       	sbiw	r28, 0x03	; 3
     300:	bd 8f       	std	Y+29, r27	; 0x1d
     302:	ac 8f       	std	Y+28, r26	; 0x1c
     304:	8c 8d       	ldd	r24, Y+28	; 0x1c
     306:	9d 8d       	ldd	r25, Y+29	; 0x1d
     308:	9f 8f       	std	Y+31, r25	; 0x1f
     30a:	8e 8f       	std	Y+30, r24	; 0x1e

0000030c <.LM32>:
     30c:	8e 8d       	ldd	r24, Y+30	; 0x1e
     30e:	9f 8d       	ldd	r25, Y+31	; 0x1f

00000310 <.L1^B3>:
     310:	01 97       	sbiw	r24, 0x01	; 1
     312:	f1 f7       	brne	.-4      	; 0x310 <.L1^B3>
     314:	9f 8f       	std	Y+31, r25	; 0x1f
     316:	8e 8f       	std	Y+30, r24	; 0x1e

00000318 <.LM33>:
	...

0000031a <.LM34>:
     31a:	17 c0       	rjmp	.+46     	; 0x34a <.L16>

0000031c <.L28>:
     31c:	6d 81       	ldd	r22, Y+5	; 0x05
     31e:	7e 81       	ldd	r23, Y+6	; 0x06
     320:	8f 81       	ldd	r24, Y+7	; 0x07
     322:	98 85       	ldd	r25, Y+8	; 0x08
     324:	0e 94 40 17 	call	0x2e80	; 0x2e80 <__fixunssfsi>
     328:	29 96       	adiw	r28, 0x09	; 9
     32a:	6c af       	std	Y+60, r22	; 0x3c
     32c:	7d af       	std	Y+61, r23	; 0x3d
     32e:	8e af       	std	Y+62, r24	; 0x3e
     330:	9f af       	std	Y+63, r25	; 0x3f
     332:	29 97       	sbiw	r28, 0x09	; 9
     334:	26 96       	adiw	r28, 0x06	; 6
     336:	bf ad       	ldd	r27, Y+63	; 0x3f
     338:	26 97       	sbiw	r28, 0x06	; 6
     33a:	bd 87       	std	Y+13, r27	; 0x0d

0000033c <.L5>:
     33c:	8d 85       	ldd	r24, Y+13	; 0x0d
     33e:	88 a3       	std	Y+32, r24	; 0x20

00000340 <.LM36>:
     340:	88 a1       	ldd	r24, Y+32	; 0x20

00000342 <.L1^B4>:
     342:	8a 95       	dec	r24
     344:	f1 f7       	brne	.-4      	; 0x342 <.L1^B4>
     346:	88 a3       	std	Y+32, r24	; 0x20

00000348 <.LM37>:
	...

0000034a <.L16>:
     34a:	40 e0       	ldi	r20, 0x00	; 0
     34c:	67 e0       	ldi	r22, 0x07	; 7
     34e:	83 e0       	ldi	r24, 0x03	; 3
     350:	0e 94 86 04 	call	0x90c	; 0x90c <GPIO_writePin>

00000354 <.LM39>:
     354:	00 00       	nop
     356:	c8 5b       	subi	r28, 0xB8	; 184
     358:	df 4f       	sbci	r29, 0xFF	; 255
     35a:	0f b6       	in	r0, 0x3f	; 63
     35c:	f8 94       	cli
     35e:	de bf       	out	0x3e, r29	; 62
     360:	0f be       	out	0x3f, r0	; 63
     362:	cd bf       	out	0x3d, r28	; 61
     364:	df 91       	pop	r29
     366:	cf 91       	pop	r28
     368:	08 95       	ret

0000036a <Ultrasonic_readDistance>:
     36a:	cf 93       	push	r28
     36c:	df 93       	push	r29
     36e:	cd b7       	in	r28, 0x3d	; 61
     370:	de b7       	in	r29, 0x3e	; 62
     372:	66 97       	sbiw	r28, 0x16	; 22
     374:	0f b6       	in	r0, 0x3f	; 63
     376:	f8 94       	cli
     378:	de bf       	out	0x3e, r29	; 62
     37a:	0f be       	out	0x3f, r0	; 63
     37c:	cd bf       	out	0x3d, r28	; 61

0000037e <.LM41>:
     37e:	0e 94 65 00 	call	0xca	; 0xca <Ultrasonic_Trigger>

00000382 <.LM42>:
     382:	80 91 97 00 	lds	r24, 0x0097	; 0x800097 <g_echoTime>
     386:	90 91 98 00 	lds	r25, 0x0098	; 0x800098 <g_echoTime+0x1>
     38a:	9c 01       	movw	r18, r24
     38c:	40 e0       	ldi	r20, 0x00	; 0
     38e:	50 e0       	ldi	r21, 0x00	; 0
     390:	2b 87       	std	Y+11, r18	; 0x0b
     392:	3c 87       	std	Y+12, r19	; 0x0c
     394:	4d 87       	std	Y+13, r20	; 0x0d
     396:	5e 87       	std	Y+14, r21	; 0x0e
     398:	6b 85       	ldd	r22, Y+11	; 0x0b
     39a:	7c 85       	ldd	r23, Y+12	; 0x0c
     39c:	8d 85       	ldd	r24, Y+13	; 0x0d
     39e:	9e 85       	ldd	r25, Y+14	; 0x0e
     3a0:	0e 94 6f 17 	call	0x2ede	; 0x2ede <__floatunsisf>
     3a4:	6b 83       	std	Y+3, r22	; 0x03
     3a6:	7c 83       	std	Y+4, r23	; 0x04
     3a8:	8d 83       	std	Y+5, r24	; 0x05
     3aa:	9e 83       	std	Y+6, r25	; 0x06
     3ac:	23 e3       	ldi	r18, 0x33	; 51
     3ae:	33 e3       	ldi	r19, 0x33	; 51
     3b0:	4b e6       	ldi	r20, 0x6B	; 107
     3b2:	52 e4       	ldi	r21, 0x42	; 66
     3b4:	6b 81       	ldd	r22, Y+3	; 0x03
     3b6:	7c 81       	ldd	r23, Y+4	; 0x04
     3b8:	8d 81       	ldd	r24, Y+5	; 0x05
     3ba:	9e 81       	ldd	r25, Y+6	; 0x06
     3bc:	0e 94 ce 16 	call	0x2d9c	; 0x2d9c <__divsf3>
     3c0:	6f 87       	std	Y+15, r22	; 0x0f
     3c2:	78 8b       	std	Y+16, r23	; 0x10
     3c4:	89 8b       	std	Y+17, r24	; 0x11
     3c6:	9a 8b       	std	Y+18, r25	; 0x12
     3c8:	8f 85       	ldd	r24, Y+15	; 0x0f
     3ca:	98 89       	ldd	r25, Y+16	; 0x10
     3cc:	a9 89       	ldd	r26, Y+17	; 0x11
     3ce:	ba 89       	ldd	r27, Y+18	; 0x12
     3d0:	8f 83       	std	Y+7, r24	; 0x07
     3d2:	98 87       	std	Y+8, r25	; 0x08
     3d4:	a9 87       	std	Y+9, r26	; 0x09
     3d6:	ba 87       	std	Y+10, r27	; 0x0a

000003d8 <.LM43>:
     3d8:	6f 81       	ldd	r22, Y+7	; 0x07
     3da:	78 85       	ldd	r23, Y+8	; 0x08
     3dc:	89 85       	ldd	r24, Y+9	; 0x09
     3de:	9a 85       	ldd	r25, Y+10	; 0x0a
     3e0:	0e 94 40 17 	call	0x2e80	; 0x2e80 <__fixunssfsi>
     3e4:	6b 8b       	std	Y+19, r22	; 0x13
     3e6:	7c 8b       	std	Y+20, r23	; 0x14
     3e8:	8d 8b       	std	Y+21, r24	; 0x15
     3ea:	9e 8b       	std	Y+22, r25	; 0x16
     3ec:	ab 89       	ldd	r26, Y+19	; 0x13
     3ee:	bc 89       	ldd	r27, Y+20	; 0x14
     3f0:	ba 83       	std	Y+2, r27	; 0x02
     3f2:	a9 83       	std	Y+1, r26	; 0x01

000003f4 <.LM44>:
     3f4:	89 81       	ldd	r24, Y+1	; 0x01
     3f6:	9a 81       	ldd	r25, Y+2	; 0x02

000003f8 <.LM45>:
     3f8:	66 96       	adiw	r28, 0x16	; 22
     3fa:	0f b6       	in	r0, 0x3f	; 63
     3fc:	f8 94       	cli
     3fe:	de bf       	out	0x3e, r29	; 62
     400:	0f be       	out	0x3f, r0	; 63
     402:	cd bf       	out	0x3d, r28	; 61
     404:	df 91       	pop	r29
     406:	cf 91       	pop	r28
     408:	08 95       	ret

0000040a <Ultrasonic_edgeProcessing>:
     40a:	cf 93       	push	r28
     40c:	df 93       	push	r29
     40e:	cd b7       	in	r28, 0x3d	; 61
     410:	de b7       	in	r29, 0x3e	; 62

00000412 <.LM47>:
     412:	80 91 96 00 	lds	r24, 0x0096	; 0x800096 <g_edgeCount>
     416:	8f 5f       	subi	r24, 0xFF	; 255
     418:	80 93 96 00 	sts	0x0096, r24	; 0x800096 <g_edgeCount>

0000041c <.LM48>:
     41c:	80 91 96 00 	lds	r24, 0x0096	; 0x800096 <g_edgeCount>

00000420 <.LM49>:
     420:	81 30       	cpi	r24, 0x01	; 1
     422:	31 f4       	brne	.+12     	; 0x430 <.L32>

00000424 <.LM50>:
     424:	0e 94 86 07 	call	0xf0c	; 0xf0c <ICU_clearTimerValue>

00000428 <.LM51>:
     428:	80 e0       	ldi	r24, 0x00	; 0
     42a:	0e 94 57 07 	call	0xeae	; 0xeae <ICU_setEdgeDetectionType>

0000042e <.LM52>:
     42e:	0f c0       	rjmp	.+30     	; 0x44e <.L34>

00000430 <.L32>:
     430:	80 91 96 00 	lds	r24, 0x0096	; 0x800096 <g_edgeCount>

00000434 <.LM54>:
     434:	82 30       	cpi	r24, 0x02	; 2
     436:	59 f4       	brne	.+22     	; 0x44e <.L34>

00000438 <.LM55>:
     438:	0e 94 7a 07 	call	0xef4	; 0xef4 <ICU_getInputCaptureValue>

0000043c <.LM56>:
     43c:	90 93 98 00 	sts	0x0098, r25	; 0x800098 <g_echoTime+0x1>
     440:	80 93 97 00 	sts	0x0097, r24	; 0x800097 <g_echoTime>

00000444 <.LM57>:
     444:	81 e0       	ldi	r24, 0x01	; 1
     446:	0e 94 57 07 	call	0xeae	; 0xeae <ICU_setEdgeDetectionType>

0000044a <.LM58>:
     44a:	10 92 96 00 	sts	0x0096, r1	; 0x800096 <g_edgeCount>

0000044e <.L34>:
     44e:	00 00       	nop
     450:	df 91       	pop	r29
     452:	cf 91       	pop	r28
     454:	08 95       	ret

00000456 <main>:
     456:	cf 93       	push	r28
     458:	df 93       	push	r29
     45a:	cd b7       	in	r28, 0x3d	; 61
     45c:	de b7       	in	r29, 0x3e	; 62
     45e:	a4 97       	sbiw	r28, 0x24	; 36
     460:	0f b6       	in	r0, 0x3f	; 63
     462:	f8 94       	cli
     464:	de bf       	out	0x3e, r29	; 62
     466:	0f be       	out	0x3f, r0	; 63
     468:	cd bf       	out	0x3d, r28	; 61

0000046a <.LM1>:
     46a:	8f e5       	ldi	r24, 0x5F	; 95
     46c:	90 e0       	ldi	r25, 0x00	; 0
     46e:	dc 01       	movw	r26, r24
     470:	2c 91       	ld	r18, X
     472:	8f e5       	ldi	r24, 0x5F	; 95
     474:	90 e0       	ldi	r25, 0x00	; 0
     476:	20 68       	ori	r18, 0x80	; 128
     478:	fc 01       	movw	r30, r24
     47a:	20 83       	st	Z, r18

0000047c <.LM2>:
     47c:	0e 94 49 00 	call	0x92	; 0x92 <Ultrasonic_init>

00000480 <.LM3>:
     480:	0e 94 ba 07 	call	0xf74	; 0xf74 <LCD_init>

00000484 <.LM4>:
     484:	0e 94 59 16 	call	0x2cb2	; 0x2cb2 <LEDS_init>

00000488 <.LM5>:
     488:	0e 94 69 03 	call	0x6d2	; 0x6d2 <Buzzer_init>

0000048c <.LM6>:
     48c:	0e 94 b5 01 	call	0x36a	; 0x36a <Ultrasonic_readDistance>

00000490 <.LM7>:
     490:	96 95       	lsr	r25
     492:	87 95       	ror	r24

00000494 <.LM8>:
     494:	01 96       	adiw	r24, 0x01	; 1
     496:	9a 83       	std	Y+2, r25	; 0x02
     498:	89 83       	std	Y+1, r24	; 0x01

0000049a <.LM9>:
     49a:	80 e6       	ldi	r24, 0x60	; 96
     49c:	90 e0       	ldi	r25, 0x00	; 0
     49e:	0e 94 af 15 	call	0x2b5e	; 0x2b5e <LCD_displayString>

000004a2 <.L17>:
     4a2:	0e 94 b5 01 	call	0x36a	; 0x36a <Ultrasonic_readDistance>

000004a6 <.LM11>:
     4a6:	96 95       	lsr	r25
     4a8:	87 95       	ror	r24

000004aa <.LM12>:
     4aa:	01 96       	adiw	r24, 0x01	; 1
     4ac:	9a 83       	std	Y+2, r25	; 0x02
     4ae:	89 83       	std	Y+1, r24	; 0x01

000004b0 <.LM13>:
     4b0:	6a e0       	ldi	r22, 0x0A	; 10
     4b2:	80 e0       	ldi	r24, 0x00	; 0
     4b4:	0e 94 da 15 	call	0x2bb4	; 0x2bb4 <LCD_moveCursor>

000004b8 <.LM14>:
     4b8:	89 81       	ldd	r24, Y+1	; 0x01
     4ba:	9a 81       	ldd	r25, Y+2	; 0x02
     4bc:	0e 94 2a 16 	call	0x2c54	; 0x2c54 <LCD_intgerToString>

000004c0 <.LM15>:
     4c0:	89 81       	ldd	r24, Y+1	; 0x01
     4c2:	9a 81       	ldd	r25, Y+2	; 0x02
     4c4:	84 36       	cpi	r24, 0x64	; 100
     4c6:	91 05       	cpc	r25, r1
     4c8:	20 f4       	brcc	.+8      	; 0x4d2 <.L2>

000004ca <.LM16>:
     4ca:	80 e2       	ldi	r24, 0x20	; 32
     4cc:	0e 94 1c 0f 	call	0x1e38	; 0x1e38 <LCD_displayCharacter>
     4d0:	08 c0       	rjmp	.+16     	; 0x4e2 <.L3>

000004d2 <.L2>:
     4d2:	89 81       	ldd	r24, Y+1	; 0x01
     4d4:	9a 81       	ldd	r25, Y+2	; 0x02
     4d6:	0a 97       	sbiw	r24, 0x0a	; 10
     4d8:	20 f4       	brcc	.+8      	; 0x4e2 <.L3>

000004da <.LM18>:
     4da:	81 e7       	ldi	r24, 0x71	; 113
     4dc:	90 e0       	ldi	r25, 0x00	; 0
     4de:	0e 94 af 15 	call	0x2b5e	; 0x2b5e <LCD_displayString>

000004e2 <.L3>:
     4e2:	89 81       	ldd	r24, Y+1	; 0x01
     4e4:	9a 81       	ldd	r25, Y+2	; 0x02
     4e6:	06 97       	sbiw	r24, 0x06	; 6
     4e8:	08 f0       	brcs	.+2      	; 0x4ec <.LM20>

000004ea <L0^A>:
     4ea:	ab c0       	rjmp	.+342    	; 0x642 <.L4>

000004ec <.LM20>:
     4ec:	0e 94 7b 03 	call	0x6f6	; 0x6f6 <Buzzer_on>

000004f0 <.LM21>:
     4f0:	80 e0       	ldi	r24, 0x00	; 0
     4f2:	0e 94 7f 16 	call	0x2cfe	; 0x2cfe <LED_on>

000004f6 <.LM22>:
     4f6:	81 e0       	ldi	r24, 0x01	; 1
     4f8:	0e 94 7f 16 	call	0x2cfe	; 0x2cfe <LED_on>

000004fc <.LM23>:
     4fc:	82 e0       	ldi	r24, 0x02	; 2
     4fe:	0e 94 7f 16 	call	0x2cfe	; 0x2cfe <LED_on>
     502:	80 e0       	ldi	r24, 0x00	; 0
     504:	90 e0       	ldi	r25, 0x00	; 0
     506:	a8 ec       	ldi	r26, 0xC8	; 200
     508:	b2 e4       	ldi	r27, 0x42	; 66
     50a:	8b 83       	std	Y+3, r24	; 0x03
     50c:	9c 83       	std	Y+4, r25	; 0x04
     50e:	ad 83       	std	Y+5, r26	; 0x05
     510:	be 83       	std	Y+6, r27	; 0x06

00000512 <.LM24>:
     512:	20 e0       	ldi	r18, 0x00	; 0
     514:	30 e0       	ldi	r19, 0x00	; 0
     516:	4a e7       	ldi	r20, 0x7A	; 122
     518:	55 e4       	ldi	r21, 0x45	; 69
     51a:	6b 81       	ldd	r22, Y+3	; 0x03
     51c:	7c 81       	ldd	r23, Y+4	; 0x04
     51e:	8d 81       	ldd	r24, Y+5	; 0x05
     520:	9e 81       	ldd	r25, Y+6	; 0x06
     522:	0e 94 26 18 	call	0x304c	; 0x304c <__mulsf3>
     526:	6d 8b       	std	Y+21, r22	; 0x15
     528:	7e 8b       	std	Y+22, r23	; 0x16
     52a:	8f 8b       	std	Y+23, r24	; 0x17
     52c:	98 8f       	std	Y+24, r25	; 0x18
     52e:	8d 89       	ldd	r24, Y+21	; 0x15
     530:	9e 89       	ldd	r25, Y+22	; 0x16
     532:	af 89       	ldd	r26, Y+23	; 0x17
     534:	b8 8d       	ldd	r27, Y+24	; 0x18
     536:	8f 83       	std	Y+7, r24	; 0x07
     538:	98 87       	std	Y+8, r25	; 0x08
     53a:	a9 87       	std	Y+9, r26	; 0x09
     53c:	ba 87       	std	Y+10, r27	; 0x0a

0000053e <.LM25>:
     53e:	20 e0       	ldi	r18, 0x00	; 0
     540:	30 e0       	ldi	r19, 0x00	; 0
     542:	40 e8       	ldi	r20, 0x80	; 128
     544:	5f e3       	ldi	r21, 0x3F	; 63
     546:	6f 81       	ldd	r22, Y+7	; 0x07
     548:	78 85       	ldd	r23, Y+8	; 0x08
     54a:	89 85       	ldd	r24, Y+9	; 0x09
     54c:	9a 85       	ldd	r25, Y+10	; 0x0a
     54e:	0e 94 c9 16 	call	0x2d92	; 0x2d92 <__cmpsf2>
     552:	88 23       	and	r24, r24
     554:	2c f4       	brge	.+10     	; 0x560 <.L20>

00000556 <.LM26>:
     556:	81 e0       	ldi	r24, 0x01	; 1
     558:	90 e0       	ldi	r25, 0x00	; 0
     55a:	9c 87       	std	Y+12, r25	; 0x0c
     55c:	8b 87       	std	Y+11, r24	; 0x0b
     55e:	54 c0       	rjmp	.+168    	; 0x608 <.L7>

00000560 <.L20>:
     560:	20 e0       	ldi	r18, 0x00	; 0
     562:	3f ef       	ldi	r19, 0xFF	; 255
     564:	4f e7       	ldi	r20, 0x7F	; 127
     566:	57 e4       	ldi	r21, 0x47	; 71
     568:	6f 81       	ldd	r22, Y+7	; 0x07
     56a:	78 85       	ldd	r23, Y+8	; 0x08
     56c:	89 85       	ldd	r24, Y+9	; 0x09
     56e:	9a 85       	ldd	r25, Y+10	; 0x0a
     570:	0e 94 21 18 	call	0x3042	; 0x3042 <__gesf2>
     574:	18 16       	cp	r1, r24
     576:	d4 f5       	brge	.+116    	; 0x5ec <.L21>

00000578 <.LM28>:
     578:	20 e0       	ldi	r18, 0x00	; 0
     57a:	30 e0       	ldi	r19, 0x00	; 0
     57c:	40 e2       	ldi	r20, 0x20	; 32
     57e:	51 e4       	ldi	r21, 0x41	; 65
     580:	6b 81       	ldd	r22, Y+3	; 0x03
     582:	7c 81       	ldd	r23, Y+4	; 0x04
     584:	8d 81       	ldd	r24, Y+5	; 0x05
     586:	9e 81       	ldd	r25, Y+6	; 0x06
     588:	0e 94 26 18 	call	0x304c	; 0x304c <__mulsf3>
     58c:	69 8f       	std	Y+25, r22	; 0x19
     58e:	7a 8f       	std	Y+26, r23	; 0x1a
     590:	8b 8f       	std	Y+27, r24	; 0x1b
     592:	9c 8f       	std	Y+28, r25	; 0x1c
     594:	89 8d       	ldd	r24, Y+25	; 0x19
     596:	9a 8d       	ldd	r25, Y+26	; 0x1a
     598:	ab 8d       	ldd	r26, Y+27	; 0x1b
     59a:	bc 8d       	ldd	r27, Y+28	; 0x1c
     59c:	89 8b       	std	Y+17, r24	; 0x11
     59e:	9a 8b       	std	Y+18, r25	; 0x12
     5a0:	ab 8b       	std	Y+19, r26	; 0x13
     5a2:	bc 8b       	std	Y+20, r27	; 0x14

000005a4 <.LM29>:
     5a4:	69 89       	ldd	r22, Y+17	; 0x11
     5a6:	7a 89       	ldd	r23, Y+18	; 0x12
     5a8:	8b 89       	ldd	r24, Y+19	; 0x13
     5aa:	9c 89       	ldd	r25, Y+20	; 0x14
     5ac:	0e 94 40 17 	call	0x2e80	; 0x2e80 <__fixunssfsi>
     5b0:	6d 8f       	std	Y+29, r22	; 0x1d
     5b2:	7e 8f       	std	Y+30, r23	; 0x1e
     5b4:	8f 8f       	std	Y+31, r24	; 0x1f
     5b6:	98 a3       	std	Y+32, r25	; 0x20
     5b8:	ad 8d       	ldd	r26, Y+29	; 0x1d
     5ba:	be 8d       	ldd	r27, Y+30	; 0x1e
     5bc:	bc 87       	std	Y+12, r27	; 0x0c
     5be:	ab 87       	std	Y+11, r26	; 0x0b

000005c0 <.LM30>:
     5c0:	10 c0       	rjmp	.+32     	; 0x5e2 <.L10>

000005c2 <.L11>:
     5c2:	80 e9       	ldi	r24, 0x90	; 144
     5c4:	91 e0       	ldi	r25, 0x01	; 1
     5c6:	9e 87       	std	Y+14, r25	; 0x0e
     5c8:	8d 87       	std	Y+13, r24	; 0x0d

000005ca <.LM31>:
     5ca:	8d 85       	ldd	r24, Y+13	; 0x0d
     5cc:	9e 85       	ldd	r25, Y+14	; 0x0e

000005ce <.L1^B1>:
     5ce:	01 97       	sbiw	r24, 0x01	; 1
     5d0:	f1 f7       	brne	.-4      	; 0x5ce <.L1^B1>
     5d2:	9e 87       	std	Y+14, r25	; 0x0e
     5d4:	8d 87       	std	Y+13, r24	; 0x0d

000005d6 <.LM32>:
	...

000005d8 <.LM33>:
     5d8:	8b 85       	ldd	r24, Y+11	; 0x0b
     5da:	9c 85       	ldd	r25, Y+12	; 0x0c
     5dc:	01 97       	sbiw	r24, 0x01	; 1
     5de:	9c 87       	std	Y+12, r25	; 0x0c
     5e0:	8b 87       	std	Y+11, r24	; 0x0b

000005e2 <.L10>:
     5e2:	8b 85       	ldd	r24, Y+11	; 0x0b
     5e4:	9c 85       	ldd	r25, Y+12	; 0x0c
     5e6:	89 2b       	or	r24, r25
     5e8:	61 f7       	brne	.-40     	; 0x5c2 <.L11>

000005ea <.LM35>:
     5ea:	19 c0       	rjmp	.+50     	; 0x61e <.L12>

000005ec <.L21>:
     5ec:	6f 81       	ldd	r22, Y+7	; 0x07
     5ee:	78 85       	ldd	r23, Y+8	; 0x08
     5f0:	89 85       	ldd	r24, Y+9	; 0x09
     5f2:	9a 85       	ldd	r25, Y+10	; 0x0a
     5f4:	0e 94 40 17 	call	0x2e80	; 0x2e80 <__fixunssfsi>
     5f8:	69 a3       	std	Y+33, r22	; 0x21
     5fa:	7a a3       	std	Y+34, r23	; 0x22
     5fc:	8b a3       	std	Y+35, r24	; 0x23
     5fe:	9c a3       	std	Y+36, r25	; 0x24
     600:	e9 a1       	ldd	r30, Y+33	; 0x21
     602:	fa a1       	ldd	r31, Y+34	; 0x22
     604:	fc 87       	std	Y+12, r31	; 0x0c
     606:	eb 87       	std	Y+11, r30	; 0x0b

00000608 <.L7>:
     608:	8b 85       	ldd	r24, Y+11	; 0x0b
     60a:	9c 85       	ldd	r25, Y+12	; 0x0c
     60c:	98 8b       	std	Y+16, r25	; 0x10
     60e:	8f 87       	std	Y+15, r24	; 0x0f

00000610 <.LM37>:
     610:	8f 85       	ldd	r24, Y+15	; 0x0f
     612:	98 89       	ldd	r25, Y+16	; 0x10

00000614 <.L1^B2>:
     614:	01 97       	sbiw	r24, 0x01	; 1
     616:	f1 f7       	brne	.-4      	; 0x614 <.L1^B2>
     618:	98 8b       	std	Y+16, r25	; 0x10
     61a:	8f 87       	std	Y+15, r24	; 0x0f

0000061c <.LM38>:
	...

0000061e <.L12>:
     61e:	80 e0       	ldi	r24, 0x00	; 0
     620:	0e 94 a4 16 	call	0x2d48	; 0x2d48 <LED_off>

00000624 <.LM40>:
     624:	81 e0       	ldi	r24, 0x01	; 1
     626:	0e 94 a4 16 	call	0x2d48	; 0x2d48 <LED_off>

0000062a <.LM41>:
     62a:	82 e0       	ldi	r24, 0x02	; 2
     62c:	0e 94 a4 16 	call	0x2d48	; 0x2d48 <LED_off>

00000630 <.LM42>:
     630:	60 e0       	ldi	r22, 0x00	; 0
     632:	81 e0       	ldi	r24, 0x01	; 1
     634:	0e 94 da 15 	call	0x2bb4	; 0x2bb4 <LCD_moveCursor>

00000638 <.LM43>:
     638:	84 e7       	ldi	r24, 0x74	; 116
     63a:	90 e0       	ldi	r25, 0x00	; 0
     63c:	0e 94 af 15 	call	0x2b5e	; 0x2b5e <LCD_displayString>
     640:	30 cf       	rjmp	.-416    	; 0x4a2 <.L17>

00000642 <.L4>:
     642:	89 81       	ldd	r24, Y+1	; 0x01
     644:	9a 81       	ldd	r25, Y+2	; 0x02
     646:	0b 97       	sbiw	r24, 0x0b	; 11
     648:	c8 f4       	brcc	.+50     	; 0x67c <.L14>

0000064a <.LM45>:
     64a:	80 e0       	ldi	r24, 0x00	; 0
     64c:	0e 94 7f 16 	call	0x2cfe	; 0x2cfe <LED_on>

00000650 <.LM46>:
     650:	81 e0       	ldi	r24, 0x01	; 1
     652:	0e 94 7f 16 	call	0x2cfe	; 0x2cfe <LED_on>

00000656 <.LM47>:
     656:	82 e0       	ldi	r24, 0x02	; 2
     658:	0e 94 7f 16 	call	0x2cfe	; 0x2cfe <LED_on>

0000065c <.LM48>:
     65c:	89 81       	ldd	r24, Y+1	; 0x01
     65e:	9a 81       	ldd	r25, Y+2	; 0x02
     660:	06 97       	sbiw	r24, 0x06	; 6
     662:	09 f0       	breq	.+2      	; 0x666 <.LM49>

00000664 <L0^A>:
     664:	1e cf       	rjmp	.-452    	; 0x4a2 <.L17>

00000666 <.LM49>:
     666:	0e 94 88 03 	call	0x710	; 0x710 <Buzzer_off>

0000066a <.LM50>:
     66a:	60 e0       	ldi	r22, 0x00	; 0
     66c:	81 e0       	ldi	r24, 0x01	; 1
     66e:	0e 94 da 15 	call	0x2bb4	; 0x2bb4 <LCD_moveCursor>

00000672 <.LM51>:
     672:	85 e8       	ldi	r24, 0x85	; 133
     674:	90 e0       	ldi	r25, 0x00	; 0
     676:	0e 94 af 15 	call	0x2b5e	; 0x2b5e <LCD_displayString>
     67a:	13 cf       	rjmp	.-474    	; 0x4a2 <.L17>

0000067c <.L14>:
     67c:	89 81       	ldd	r24, Y+1	; 0x01
     67e:	9a 81       	ldd	r25, Y+2	; 0x02
     680:	40 97       	sbiw	r24, 0x10	; 16
     682:	50 f4       	brcc	.+20     	; 0x698 <.L15>

00000684 <.LM53>:
     684:	80 e0       	ldi	r24, 0x00	; 0
     686:	0e 94 7f 16 	call	0x2cfe	; 0x2cfe <LED_on>

0000068a <.LM54>:
     68a:	81 e0       	ldi	r24, 0x01	; 1
     68c:	0e 94 7f 16 	call	0x2cfe	; 0x2cfe <LED_on>

00000690 <.LM55>:
     690:	82 e0       	ldi	r24, 0x02	; 2
     692:	0e 94 a4 16 	call	0x2d48	; 0x2d48 <LED_off>
     696:	05 cf       	rjmp	.-502    	; 0x4a2 <.L17>

00000698 <.L15>:
     698:	89 81       	ldd	r24, Y+1	; 0x01
     69a:	9a 81       	ldd	r25, Y+2	; 0x02
     69c:	45 97       	sbiw	r24, 0x15	; 21
     69e:	50 f4       	brcc	.+20     	; 0x6b4 <.L16>

000006a0 <.LM57>:
     6a0:	80 e0       	ldi	r24, 0x00	; 0
     6a2:	0e 94 7f 16 	call	0x2cfe	; 0x2cfe <LED_on>

000006a6 <.LM58>:
     6a6:	81 e0       	ldi	r24, 0x01	; 1
     6a8:	0e 94 a4 16 	call	0x2d48	; 0x2d48 <LED_off>

000006ac <.LM59>:
     6ac:	82 e0       	ldi	r24, 0x02	; 2
     6ae:	0e 94 a4 16 	call	0x2d48	; 0x2d48 <LED_off>
     6b2:	f7 ce       	rjmp	.-530    	; 0x4a2 <.L17>

000006b4 <.L16>:
     6b4:	89 81       	ldd	r24, Y+1	; 0x01
     6b6:	9a 81       	ldd	r25, Y+2	; 0x02
     6b8:	45 97       	sbiw	r24, 0x15	; 21
     6ba:	08 f4       	brcc	.+2      	; 0x6be <.LM61>

000006bc <L0^A>:
     6bc:	f2 ce       	rjmp	.-540    	; 0x4a2 <.L17>

000006be <.LM61>:
     6be:	80 e0       	ldi	r24, 0x00	; 0
     6c0:	0e 94 a4 16 	call	0x2d48	; 0x2d48 <LED_off>

000006c4 <.LM62>:
     6c4:	81 e0       	ldi	r24, 0x01	; 1
     6c6:	0e 94 a4 16 	call	0x2d48	; 0x2d48 <LED_off>

000006ca <.LM63>:
     6ca:	82 e0       	ldi	r24, 0x02	; 2
     6cc:	0e 94 a4 16 	call	0x2d48	; 0x2d48 <LED_off>

000006d0 <.LM64>:
     6d0:	e8 ce       	rjmp	.-560    	; 0x4a2 <.L17>

000006d2 <Buzzer_init>:
     6d2:	cf 93       	push	r28
     6d4:	df 93       	push	r29
     6d6:	cd b7       	in	r28, 0x3d	; 61
     6d8:	de b7       	in	r29, 0x3e	; 62

000006da <.LM1>:
     6da:	41 e0       	ldi	r20, 0x01	; 1
     6dc:	65 e0       	ldi	r22, 0x05	; 5
     6de:	82 e0       	ldi	r24, 0x02	; 2
     6e0:	0e 94 95 03 	call	0x72a	; 0x72a <GPIO_setupPinDirection>

000006e4 <.LM2>:
     6e4:	40 e0       	ldi	r20, 0x00	; 0
     6e6:	65 e0       	ldi	r22, 0x05	; 5
     6e8:	82 e0       	ldi	r24, 0x02	; 2
     6ea:	0e 94 86 04 	call	0x90c	; 0x90c <GPIO_writePin>

000006ee <.LM3>:
     6ee:	00 00       	nop
     6f0:	df 91       	pop	r29
     6f2:	cf 91       	pop	r28
     6f4:	08 95       	ret

000006f6 <Buzzer_on>:
     6f6:	cf 93       	push	r28
     6f8:	df 93       	push	r29
     6fa:	cd b7       	in	r28, 0x3d	; 61
     6fc:	de b7       	in	r29, 0x3e	; 62

000006fe <.LM5>:
     6fe:	41 e0       	ldi	r20, 0x01	; 1
     700:	65 e0       	ldi	r22, 0x05	; 5
     702:	82 e0       	ldi	r24, 0x02	; 2
     704:	0e 94 86 04 	call	0x90c	; 0x90c <GPIO_writePin>

00000708 <.LM6>:
     708:	00 00       	nop
     70a:	df 91       	pop	r29
     70c:	cf 91       	pop	r28
     70e:	08 95       	ret

00000710 <Buzzer_off>:
     710:	cf 93       	push	r28
     712:	df 93       	push	r29
     714:	cd b7       	in	r28, 0x3d	; 61
     716:	de b7       	in	r29, 0x3e	; 62

00000718 <.LM8>:
     718:	40 e0       	ldi	r20, 0x00	; 0
     71a:	65 e0       	ldi	r22, 0x05	; 5
     71c:	82 e0       	ldi	r24, 0x02	; 2
     71e:	0e 94 86 04 	call	0x90c	; 0x90c <GPIO_writePin>

00000722 <.LM9>:
     722:	00 00       	nop
     724:	df 91       	pop	r29
     726:	cf 91       	pop	r28
     728:	08 95       	ret

0000072a <GPIO_setupPinDirection>:
     72a:	cf 93       	push	r28
     72c:	df 93       	push	r29
     72e:	00 d0       	rcall	.+0      	; 0x730 <L0^A>

00000730 <L0^A>:
     730:	0f 92       	push	r0
     732:	cd b7       	in	r28, 0x3d	; 61
     734:	de b7       	in	r29, 0x3e	; 62
     736:	89 83       	std	Y+1, r24	; 0x01
     738:	6a 83       	std	Y+2, r22	; 0x02
     73a:	4b 83       	std	Y+3, r20	; 0x03

0000073c <.LM1>:
     73c:	8a 81       	ldd	r24, Y+2	; 0x02
     73e:	88 30       	cpi	r24, 0x08	; 8
     740:	08 f0       	brcs	.+2      	; 0x744 <.LM2>

00000742 <L0^A>:
     742:	dc c0       	rjmp	.+440    	; 0x8fc <.L15>

00000744 <.LM2>:
     744:	89 81       	ldd	r24, Y+1	; 0x01
     746:	84 30       	cpi	r24, 0x04	; 4
     748:	08 f0       	brcs	.+2      	; 0x74c <.LM3>

0000074a <L0^A>:
     74a:	d9 c0       	rjmp	.+434    	; 0x8fe <.L16>

0000074c <.LM3>:
     74c:	89 81       	ldd	r24, Y+1	; 0x01
     74e:	88 2f       	mov	r24, r24
     750:	90 e0       	ldi	r25, 0x00	; 0
     752:	83 30       	cpi	r24, 0x03	; 3
     754:	91 05       	cpc	r25, r1
     756:	09 f4       	brne	.+2      	; 0x75a <L0^A+0x2>

00000758 <L0^A>:
     758:	a1 c0       	rjmp	.+322    	; 0x89c <.L3>
     75a:	84 30       	cpi	r24, 0x04	; 4
     75c:	91 05       	cpc	r25, r1
     75e:	0c f0       	brlt	.+2      	; 0x762 <L0^A+0x2>

00000760 <L0^A>:
     760:	ce c0       	rjmp	.+412    	; 0x8fe <.L16>
     762:	82 30       	cpi	r24, 0x02	; 2
     764:	91 05       	cpc	r25, r1
     766:	09 f4       	brne	.+2      	; 0x76a <L0^A+0x2>

00000768 <L0^A>:
     768:	69 c0       	rjmp	.+210    	; 0x83c <.L4>
     76a:	83 30       	cpi	r24, 0x03	; 3
     76c:	91 05       	cpc	r25, r1
     76e:	0c f0       	brlt	.+2      	; 0x772 <L0^A+0x2>

00000770 <L0^A>:
     770:	c6 c0       	rjmp	.+396    	; 0x8fe <.L16>
     772:	00 97       	sbiw	r24, 0x00	; 0
     774:	19 f0       	breq	.+6      	; 0x77c <.L5>
     776:	01 97       	sbiw	r24, 0x01	; 1
     778:	89 f1       	breq	.+98     	; 0x7dc <.L6>

0000077a <.LM4>:
     77a:	c1 c0       	rjmp	.+386    	; 0x8fe <.L16>

0000077c <.L5>:
     77c:	8b 81       	ldd	r24, Y+3	; 0x03
     77e:	81 30       	cpi	r24, 0x01	; 1
     780:	b1 f4       	brne	.+44     	; 0x7ae <.L7>

00000782 <.LM6>:
     782:	8a e3       	ldi	r24, 0x3A	; 58
     784:	90 e0       	ldi	r25, 0x00	; 0
     786:	fc 01       	movw	r30, r24
     788:	80 81       	ld	r24, Z
     78a:	48 2f       	mov	r20, r24
     78c:	8a 81       	ldd	r24, Y+2	; 0x02
     78e:	28 2f       	mov	r18, r24
     790:	30 e0       	ldi	r19, 0x00	; 0
     792:	81 e0       	ldi	r24, 0x01	; 1
     794:	90 e0       	ldi	r25, 0x00	; 0
     796:	02 c0       	rjmp	.+4      	; 0x79c <.L2^B1>

00000798 <.L1^B1>:
     798:	88 0f       	add	r24, r24
     79a:	99 1f       	adc	r25, r25

0000079c <.L2^B1>:
     79c:	2a 95       	dec	r18
     79e:	e2 f7       	brpl	.-8      	; 0x798 <.L1^B1>
     7a0:	24 2f       	mov	r18, r20
     7a2:	28 2b       	or	r18, r24
     7a4:	8a e3       	ldi	r24, 0x3A	; 58
     7a6:	90 e0       	ldi	r25, 0x00	; 0
     7a8:	fc 01       	movw	r30, r24
     7aa:	20 83       	st	Z, r18

000007ac <.LM7>:
     7ac:	a8 c0       	rjmp	.+336    	; 0x8fe <.L16>

000007ae <.L7>:
     7ae:	8a e3       	ldi	r24, 0x3A	; 58
     7b0:	90 e0       	ldi	r25, 0x00	; 0
     7b2:	fc 01       	movw	r30, r24
     7b4:	80 81       	ld	r24, Z
     7b6:	48 2f       	mov	r20, r24
     7b8:	8a 81       	ldd	r24, Y+2	; 0x02
     7ba:	28 2f       	mov	r18, r24
     7bc:	30 e0       	ldi	r19, 0x00	; 0
     7be:	81 e0       	ldi	r24, 0x01	; 1
     7c0:	90 e0       	ldi	r25, 0x00	; 0
     7c2:	02 c0       	rjmp	.+4      	; 0x7c8 <.L2^B2>

000007c4 <.L1^B2>:
     7c4:	88 0f       	add	r24, r24
     7c6:	99 1f       	adc	r25, r25

000007c8 <.L2^B2>:
     7c8:	2a 95       	dec	r18
     7ca:	e2 f7       	brpl	.-8      	; 0x7c4 <.L1^B2>
     7cc:	80 95       	com	r24
     7ce:	24 2f       	mov	r18, r20
     7d0:	28 23       	and	r18, r24
     7d2:	8a e3       	ldi	r24, 0x3A	; 58
     7d4:	90 e0       	ldi	r25, 0x00	; 0
     7d6:	fc 01       	movw	r30, r24
     7d8:	20 83       	st	Z, r18

000007da <.LM9>:
     7da:	91 c0       	rjmp	.+290    	; 0x8fe <.L16>

000007dc <.L6>:
     7dc:	8b 81       	ldd	r24, Y+3	; 0x03
     7de:	81 30       	cpi	r24, 0x01	; 1
     7e0:	b1 f4       	brne	.+44     	; 0x80e <.L9>

000007e2 <.LM11>:
     7e2:	87 e3       	ldi	r24, 0x37	; 55
     7e4:	90 e0       	ldi	r25, 0x00	; 0
     7e6:	fc 01       	movw	r30, r24
     7e8:	80 81       	ld	r24, Z
     7ea:	48 2f       	mov	r20, r24
     7ec:	8a 81       	ldd	r24, Y+2	; 0x02
     7ee:	28 2f       	mov	r18, r24
     7f0:	30 e0       	ldi	r19, 0x00	; 0
     7f2:	81 e0       	ldi	r24, 0x01	; 1
     7f4:	90 e0       	ldi	r25, 0x00	; 0
     7f6:	02 c0       	rjmp	.+4      	; 0x7fc <.L2^B3>

000007f8 <.L1^B3>:
     7f8:	88 0f       	add	r24, r24
     7fa:	99 1f       	adc	r25, r25

000007fc <.L2^B3>:
     7fc:	2a 95       	dec	r18
     7fe:	e2 f7       	brpl	.-8      	; 0x7f8 <.L1^B3>
     800:	24 2f       	mov	r18, r20
     802:	28 2b       	or	r18, r24
     804:	87 e3       	ldi	r24, 0x37	; 55
     806:	90 e0       	ldi	r25, 0x00	; 0
     808:	fc 01       	movw	r30, r24
     80a:	20 83       	st	Z, r18

0000080c <.LM12>:
     80c:	78 c0       	rjmp	.+240    	; 0x8fe <.L16>

0000080e <.L9>:
     80e:	87 e3       	ldi	r24, 0x37	; 55
     810:	90 e0       	ldi	r25, 0x00	; 0
     812:	fc 01       	movw	r30, r24
     814:	80 81       	ld	r24, Z
     816:	48 2f       	mov	r20, r24
     818:	8a 81       	ldd	r24, Y+2	; 0x02
     81a:	28 2f       	mov	r18, r24
     81c:	30 e0       	ldi	r19, 0x00	; 0
     81e:	81 e0       	ldi	r24, 0x01	; 1
     820:	90 e0       	ldi	r25, 0x00	; 0
     822:	02 c0       	rjmp	.+4      	; 0x828 <.L2^B4>

00000824 <.L1^B4>:
     824:	88 0f       	add	r24, r24
     826:	99 1f       	adc	r25, r25

00000828 <.L2^B4>:
     828:	2a 95       	dec	r18
     82a:	e2 f7       	brpl	.-8      	; 0x824 <.L1^B4>
     82c:	80 95       	com	r24
     82e:	24 2f       	mov	r18, r20
     830:	28 23       	and	r18, r24
     832:	87 e3       	ldi	r24, 0x37	; 55
     834:	90 e0       	ldi	r25, 0x00	; 0
     836:	fc 01       	movw	r30, r24
     838:	20 83       	st	Z, r18

0000083a <.LM14>:
     83a:	61 c0       	rjmp	.+194    	; 0x8fe <.L16>

0000083c <.L4>:
     83c:	8b 81       	ldd	r24, Y+3	; 0x03
     83e:	81 30       	cpi	r24, 0x01	; 1
     840:	b1 f4       	brne	.+44     	; 0x86e <.L11>

00000842 <.LM16>:
     842:	84 e3       	ldi	r24, 0x34	; 52
     844:	90 e0       	ldi	r25, 0x00	; 0
     846:	fc 01       	movw	r30, r24
     848:	80 81       	ld	r24, Z
     84a:	48 2f       	mov	r20, r24
     84c:	8a 81       	ldd	r24, Y+2	; 0x02
     84e:	28 2f       	mov	r18, r24
     850:	30 e0       	ldi	r19, 0x00	; 0
     852:	81 e0       	ldi	r24, 0x01	; 1
     854:	90 e0       	ldi	r25, 0x00	; 0
     856:	02 c0       	rjmp	.+4      	; 0x85c <.L2^B5>

00000858 <.L1^B5>:
     858:	88 0f       	add	r24, r24
     85a:	99 1f       	adc	r25, r25

0000085c <.L2^B5>:
     85c:	2a 95       	dec	r18
     85e:	e2 f7       	brpl	.-8      	; 0x858 <.L1^B5>
     860:	24 2f       	mov	r18, r20
     862:	28 2b       	or	r18, r24
     864:	84 e3       	ldi	r24, 0x34	; 52
     866:	90 e0       	ldi	r25, 0x00	; 0
     868:	fc 01       	movw	r30, r24
     86a:	20 83       	st	Z, r18

0000086c <.LM17>:
     86c:	48 c0       	rjmp	.+144    	; 0x8fe <.L16>

0000086e <.L11>:
     86e:	84 e3       	ldi	r24, 0x34	; 52
     870:	90 e0       	ldi	r25, 0x00	; 0
     872:	fc 01       	movw	r30, r24
     874:	80 81       	ld	r24, Z
     876:	48 2f       	mov	r20, r24
     878:	8a 81       	ldd	r24, Y+2	; 0x02
     87a:	28 2f       	mov	r18, r24
     87c:	30 e0       	ldi	r19, 0x00	; 0
     87e:	81 e0       	ldi	r24, 0x01	; 1
     880:	90 e0       	ldi	r25, 0x00	; 0
     882:	02 c0       	rjmp	.+4      	; 0x888 <.L2^B6>

00000884 <.L1^B6>:
     884:	88 0f       	add	r24, r24
     886:	99 1f       	adc	r25, r25

00000888 <.L2^B6>:
     888:	2a 95       	dec	r18
     88a:	e2 f7       	brpl	.-8      	; 0x884 <.L1^B6>
     88c:	80 95       	com	r24
     88e:	24 2f       	mov	r18, r20
     890:	28 23       	and	r18, r24
     892:	84 e3       	ldi	r24, 0x34	; 52
     894:	90 e0       	ldi	r25, 0x00	; 0
     896:	fc 01       	movw	r30, r24
     898:	20 83       	st	Z, r18

0000089a <.LM19>:
     89a:	31 c0       	rjmp	.+98     	; 0x8fe <.L16>

0000089c <.L3>:
     89c:	8b 81       	ldd	r24, Y+3	; 0x03
     89e:	81 30       	cpi	r24, 0x01	; 1
     8a0:	b1 f4       	brne	.+44     	; 0x8ce <.L13>

000008a2 <.LM21>:
     8a2:	81 e3       	ldi	r24, 0x31	; 49
     8a4:	90 e0       	ldi	r25, 0x00	; 0
     8a6:	fc 01       	movw	r30, r24
     8a8:	80 81       	ld	r24, Z
     8aa:	48 2f       	mov	r20, r24
     8ac:	8a 81       	ldd	r24, Y+2	; 0x02
     8ae:	28 2f       	mov	r18, r24
     8b0:	30 e0       	ldi	r19, 0x00	; 0
     8b2:	81 e0       	ldi	r24, 0x01	; 1
     8b4:	90 e0       	ldi	r25, 0x00	; 0
     8b6:	02 c0       	rjmp	.+4      	; 0x8bc <.L2^B7>

000008b8 <.L1^B7>:
     8b8:	88 0f       	add	r24, r24
     8ba:	99 1f       	adc	r25, r25

000008bc <.L2^B7>:
     8bc:	2a 95       	dec	r18
     8be:	e2 f7       	brpl	.-8      	; 0x8b8 <.L1^B7>
     8c0:	24 2f       	mov	r18, r20
     8c2:	28 2b       	or	r18, r24
     8c4:	81 e3       	ldi	r24, 0x31	; 49
     8c6:	90 e0       	ldi	r25, 0x00	; 0
     8c8:	fc 01       	movw	r30, r24
     8ca:	20 83       	st	Z, r18

000008cc <.LM22>:
     8cc:	18 c0       	rjmp	.+48     	; 0x8fe <.L16>

000008ce <.L13>:
     8ce:	81 e3       	ldi	r24, 0x31	; 49
     8d0:	90 e0       	ldi	r25, 0x00	; 0
     8d2:	fc 01       	movw	r30, r24
     8d4:	80 81       	ld	r24, Z
     8d6:	48 2f       	mov	r20, r24
     8d8:	8a 81       	ldd	r24, Y+2	; 0x02
     8da:	28 2f       	mov	r18, r24
     8dc:	30 e0       	ldi	r19, 0x00	; 0
     8de:	81 e0       	ldi	r24, 0x01	; 1
     8e0:	90 e0       	ldi	r25, 0x00	; 0
     8e2:	02 c0       	rjmp	.+4      	; 0x8e8 <.L2^B8>

000008e4 <.L1^B8>:
     8e4:	88 0f       	add	r24, r24
     8e6:	99 1f       	adc	r25, r25

000008e8 <.L2^B8>:
     8e8:	2a 95       	dec	r18
     8ea:	e2 f7       	brpl	.-8      	; 0x8e4 <.L1^B8>
     8ec:	80 95       	com	r24
     8ee:	24 2f       	mov	r18, r20
     8f0:	28 23       	and	r18, r24
     8f2:	81 e3       	ldi	r24, 0x31	; 49
     8f4:	90 e0       	ldi	r25, 0x00	; 0
     8f6:	fc 01       	movw	r30, r24
     8f8:	20 83       	st	Z, r18

000008fa <.LM24>:
     8fa:	01 c0       	rjmp	.+2      	; 0x8fe <.L16>

000008fc <.L15>:
	...

000008fe <.L16>:
     8fe:	00 00       	nop
     900:	0f 90       	pop	r0
     902:	0f 90       	pop	r0
     904:	0f 90       	pop	r0
     906:	df 91       	pop	r29
     908:	cf 91       	pop	r28
     90a:	08 95       	ret

0000090c <GPIO_writePin>:
     90c:	cf 93       	push	r28
     90e:	df 93       	push	r29
     910:	00 d0       	rcall	.+0      	; 0x912 <L0^A>

00000912 <L0^A>:
     912:	0f 92       	push	r0
     914:	cd b7       	in	r28, 0x3d	; 61
     916:	de b7       	in	r29, 0x3e	; 62
     918:	89 83       	std	Y+1, r24	; 0x01
     91a:	6a 83       	std	Y+2, r22	; 0x02
     91c:	4b 83       	std	Y+3, r20	; 0x03

0000091e <.LM28>:
     91e:	8a 81       	ldd	r24, Y+2	; 0x02
     920:	88 30       	cpi	r24, 0x08	; 8
     922:	08 f0       	brcs	.+2      	; 0x926 <.LM29>

00000924 <L0^A>:
     924:	dc c0       	rjmp	.+440    	; 0xade <.L31>

00000926 <.LM29>:
     926:	89 81       	ldd	r24, Y+1	; 0x01
     928:	84 30       	cpi	r24, 0x04	; 4
     92a:	08 f0       	brcs	.+2      	; 0x92e <.LM30>

0000092c <L0^A>:
     92c:	d9 c0       	rjmp	.+434    	; 0xae0 <.L18>

0000092e <.LM30>:
     92e:	89 81       	ldd	r24, Y+1	; 0x01
     930:	88 2f       	mov	r24, r24
     932:	90 e0       	ldi	r25, 0x00	; 0
     934:	83 30       	cpi	r24, 0x03	; 3
     936:	91 05       	cpc	r25, r1
     938:	09 f4       	brne	.+2      	; 0x93c <L0^A+0x2>

0000093a <L0^A>:
     93a:	a1 c0       	rjmp	.+322    	; 0xa7e <.L19>
     93c:	84 30       	cpi	r24, 0x04	; 4
     93e:	91 05       	cpc	r25, r1
     940:	0c f0       	brlt	.+2      	; 0x944 <L0^A+0x2>

00000942 <L0^A>:
     942:	ce c0       	rjmp	.+412    	; 0xae0 <.L18>
     944:	82 30       	cpi	r24, 0x02	; 2
     946:	91 05       	cpc	r25, r1
     948:	09 f4       	brne	.+2      	; 0x94c <L0^A+0x2>

0000094a <L0^A>:
     94a:	69 c0       	rjmp	.+210    	; 0xa1e <.L20>
     94c:	83 30       	cpi	r24, 0x03	; 3
     94e:	91 05       	cpc	r25, r1
     950:	0c f0       	brlt	.+2      	; 0x954 <L0^A+0x2>

00000952 <L0^A>:
     952:	c6 c0       	rjmp	.+396    	; 0xae0 <.L18>
     954:	00 97       	sbiw	r24, 0x00	; 0
     956:	19 f0       	breq	.+6      	; 0x95e <.L21>
     958:	01 97       	sbiw	r24, 0x01	; 1
     95a:	89 f1       	breq	.+98     	; 0x9be <.L22>

0000095c <.LM31>:
     95c:	c1 c0       	rjmp	.+386    	; 0xae0 <.L18>

0000095e <.L21>:
     95e:	8b 81       	ldd	r24, Y+3	; 0x03
     960:	81 30       	cpi	r24, 0x01	; 1
     962:	b1 f4       	brne	.+44     	; 0x990 <.L23>

00000964 <.LM33>:
     964:	8b e3       	ldi	r24, 0x3B	; 59
     966:	90 e0       	ldi	r25, 0x00	; 0
     968:	fc 01       	movw	r30, r24
     96a:	80 81       	ld	r24, Z
     96c:	48 2f       	mov	r20, r24
     96e:	8a 81       	ldd	r24, Y+2	; 0x02
     970:	28 2f       	mov	r18, r24
     972:	30 e0       	ldi	r19, 0x00	; 0
     974:	81 e0       	ldi	r24, 0x01	; 1
     976:	90 e0       	ldi	r25, 0x00	; 0
     978:	02 c0       	rjmp	.+4      	; 0x97e <.L2^B9>

0000097a <.L1^B9>:
     97a:	88 0f       	add	r24, r24
     97c:	99 1f       	adc	r25, r25

0000097e <.L2^B9>:
     97e:	2a 95       	dec	r18
     980:	e2 f7       	brpl	.-8      	; 0x97a <.L1^B9>
     982:	24 2f       	mov	r18, r20
     984:	28 2b       	or	r18, r24
     986:	8b e3       	ldi	r24, 0x3B	; 59
     988:	90 e0       	ldi	r25, 0x00	; 0
     98a:	fc 01       	movw	r30, r24
     98c:	20 83       	st	Z, r18

0000098e <.LM34>:
     98e:	a8 c0       	rjmp	.+336    	; 0xae0 <.L18>

00000990 <.L23>:
     990:	8b e3       	ldi	r24, 0x3B	; 59
     992:	90 e0       	ldi	r25, 0x00	; 0
     994:	fc 01       	movw	r30, r24
     996:	80 81       	ld	r24, Z
     998:	48 2f       	mov	r20, r24
     99a:	8a 81       	ldd	r24, Y+2	; 0x02
     99c:	28 2f       	mov	r18, r24
     99e:	30 e0       	ldi	r19, 0x00	; 0
     9a0:	81 e0       	ldi	r24, 0x01	; 1
     9a2:	90 e0       	ldi	r25, 0x00	; 0
     9a4:	02 c0       	rjmp	.+4      	; 0x9aa <.L2^B10>

000009a6 <.L1^B10>:
     9a6:	88 0f       	add	r24, r24
     9a8:	99 1f       	adc	r25, r25

000009aa <.L2^B10>:
     9aa:	2a 95       	dec	r18
     9ac:	e2 f7       	brpl	.-8      	; 0x9a6 <.L1^B10>
     9ae:	80 95       	com	r24
     9b0:	24 2f       	mov	r18, r20
     9b2:	28 23       	and	r18, r24
     9b4:	8b e3       	ldi	r24, 0x3B	; 59
     9b6:	90 e0       	ldi	r25, 0x00	; 0
     9b8:	fc 01       	movw	r30, r24
     9ba:	20 83       	st	Z, r18

000009bc <.LM36>:
     9bc:	91 c0       	rjmp	.+290    	; 0xae0 <.L18>

000009be <.L22>:
     9be:	8b 81       	ldd	r24, Y+3	; 0x03
     9c0:	81 30       	cpi	r24, 0x01	; 1
     9c2:	b1 f4       	brne	.+44     	; 0x9f0 <.L25>

000009c4 <.LM38>:
     9c4:	88 e3       	ldi	r24, 0x38	; 56
     9c6:	90 e0       	ldi	r25, 0x00	; 0
     9c8:	fc 01       	movw	r30, r24
     9ca:	80 81       	ld	r24, Z
     9cc:	48 2f       	mov	r20, r24
     9ce:	8a 81       	ldd	r24, Y+2	; 0x02
     9d0:	28 2f       	mov	r18, r24
     9d2:	30 e0       	ldi	r19, 0x00	; 0
     9d4:	81 e0       	ldi	r24, 0x01	; 1
     9d6:	90 e0       	ldi	r25, 0x00	; 0
     9d8:	02 c0       	rjmp	.+4      	; 0x9de <.L2^B11>

000009da <.L1^B11>:
     9da:	88 0f       	add	r24, r24
     9dc:	99 1f       	adc	r25, r25

000009de <.L2^B11>:
     9de:	2a 95       	dec	r18
     9e0:	e2 f7       	brpl	.-8      	; 0x9da <.L1^B11>
     9e2:	24 2f       	mov	r18, r20
     9e4:	28 2b       	or	r18, r24
     9e6:	88 e3       	ldi	r24, 0x38	; 56
     9e8:	90 e0       	ldi	r25, 0x00	; 0
     9ea:	fc 01       	movw	r30, r24
     9ec:	20 83       	st	Z, r18

000009ee <.LM39>:
     9ee:	78 c0       	rjmp	.+240    	; 0xae0 <.L18>

000009f0 <.L25>:
     9f0:	88 e3       	ldi	r24, 0x38	; 56
     9f2:	90 e0       	ldi	r25, 0x00	; 0
     9f4:	fc 01       	movw	r30, r24
     9f6:	80 81       	ld	r24, Z
     9f8:	48 2f       	mov	r20, r24
     9fa:	8a 81       	ldd	r24, Y+2	; 0x02
     9fc:	28 2f       	mov	r18, r24
     9fe:	30 e0       	ldi	r19, 0x00	; 0
     a00:	81 e0       	ldi	r24, 0x01	; 1
     a02:	90 e0       	ldi	r25, 0x00	; 0
     a04:	02 c0       	rjmp	.+4      	; 0xa0a <.L2^B12>

00000a06 <.L1^B12>:
     a06:	88 0f       	add	r24, r24
     a08:	99 1f       	adc	r25, r25

00000a0a <.L2^B12>:
     a0a:	2a 95       	dec	r18
     a0c:	e2 f7       	brpl	.-8      	; 0xa06 <.L1^B12>
     a0e:	80 95       	com	r24
     a10:	24 2f       	mov	r18, r20
     a12:	28 23       	and	r18, r24
     a14:	88 e3       	ldi	r24, 0x38	; 56
     a16:	90 e0       	ldi	r25, 0x00	; 0
     a18:	fc 01       	movw	r30, r24
     a1a:	20 83       	st	Z, r18

00000a1c <.LM41>:
     a1c:	61 c0       	rjmp	.+194    	; 0xae0 <.L18>

00000a1e <.L20>:
     a1e:	8b 81       	ldd	r24, Y+3	; 0x03
     a20:	81 30       	cpi	r24, 0x01	; 1
     a22:	b1 f4       	brne	.+44     	; 0xa50 <.L27>

00000a24 <.LM43>:
     a24:	85 e3       	ldi	r24, 0x35	; 53
     a26:	90 e0       	ldi	r25, 0x00	; 0
     a28:	fc 01       	movw	r30, r24
     a2a:	80 81       	ld	r24, Z
     a2c:	48 2f       	mov	r20, r24
     a2e:	8a 81       	ldd	r24, Y+2	; 0x02
     a30:	28 2f       	mov	r18, r24
     a32:	30 e0       	ldi	r19, 0x00	; 0
     a34:	81 e0       	ldi	r24, 0x01	; 1
     a36:	90 e0       	ldi	r25, 0x00	; 0
     a38:	02 c0       	rjmp	.+4      	; 0xa3e <.L2^B13>

00000a3a <.L1^B13>:
     a3a:	88 0f       	add	r24, r24
     a3c:	99 1f       	adc	r25, r25

00000a3e <.L2^B13>:
     a3e:	2a 95       	dec	r18
     a40:	e2 f7       	brpl	.-8      	; 0xa3a <.L1^B13>
     a42:	24 2f       	mov	r18, r20
     a44:	28 2b       	or	r18, r24
     a46:	85 e3       	ldi	r24, 0x35	; 53
     a48:	90 e0       	ldi	r25, 0x00	; 0
     a4a:	fc 01       	movw	r30, r24
     a4c:	20 83       	st	Z, r18

00000a4e <.LM44>:
     a4e:	48 c0       	rjmp	.+144    	; 0xae0 <.L18>

00000a50 <.L27>:
     a50:	85 e3       	ldi	r24, 0x35	; 53
     a52:	90 e0       	ldi	r25, 0x00	; 0
     a54:	fc 01       	movw	r30, r24
     a56:	80 81       	ld	r24, Z
     a58:	48 2f       	mov	r20, r24
     a5a:	8a 81       	ldd	r24, Y+2	; 0x02
     a5c:	28 2f       	mov	r18, r24
     a5e:	30 e0       	ldi	r19, 0x00	; 0
     a60:	81 e0       	ldi	r24, 0x01	; 1
     a62:	90 e0       	ldi	r25, 0x00	; 0
     a64:	02 c0       	rjmp	.+4      	; 0xa6a <.L2^B14>

00000a66 <.L1^B14>:
     a66:	88 0f       	add	r24, r24
     a68:	99 1f       	adc	r25, r25

00000a6a <.L2^B14>:
     a6a:	2a 95       	dec	r18
     a6c:	e2 f7       	brpl	.-8      	; 0xa66 <.L1^B14>
     a6e:	80 95       	com	r24
     a70:	24 2f       	mov	r18, r20
     a72:	28 23       	and	r18, r24
     a74:	85 e3       	ldi	r24, 0x35	; 53
     a76:	90 e0       	ldi	r25, 0x00	; 0
     a78:	fc 01       	movw	r30, r24
     a7a:	20 83       	st	Z, r18

00000a7c <.LM46>:
     a7c:	31 c0       	rjmp	.+98     	; 0xae0 <.L18>

00000a7e <.L19>:
     a7e:	8b 81       	ldd	r24, Y+3	; 0x03
     a80:	81 30       	cpi	r24, 0x01	; 1
     a82:	b1 f4       	brne	.+44     	; 0xab0 <.L29>

00000a84 <.LM48>:
     a84:	82 e3       	ldi	r24, 0x32	; 50
     a86:	90 e0       	ldi	r25, 0x00	; 0
     a88:	fc 01       	movw	r30, r24
     a8a:	80 81       	ld	r24, Z
     a8c:	48 2f       	mov	r20, r24
     a8e:	8a 81       	ldd	r24, Y+2	; 0x02
     a90:	28 2f       	mov	r18, r24
     a92:	30 e0       	ldi	r19, 0x00	; 0
     a94:	81 e0       	ldi	r24, 0x01	; 1
     a96:	90 e0       	ldi	r25, 0x00	; 0
     a98:	02 c0       	rjmp	.+4      	; 0xa9e <.L2^B15>

00000a9a <.L1^B15>:
     a9a:	88 0f       	add	r24, r24
     a9c:	99 1f       	adc	r25, r25

00000a9e <.L2^B15>:
     a9e:	2a 95       	dec	r18
     aa0:	e2 f7       	brpl	.-8      	; 0xa9a <.L1^B15>
     aa2:	24 2f       	mov	r18, r20
     aa4:	28 2b       	or	r18, r24
     aa6:	82 e3       	ldi	r24, 0x32	; 50
     aa8:	90 e0       	ldi	r25, 0x00	; 0
     aaa:	fc 01       	movw	r30, r24
     aac:	20 83       	st	Z, r18

00000aae <.LM49>:
     aae:	18 c0       	rjmp	.+48     	; 0xae0 <.L18>

00000ab0 <.L29>:
     ab0:	82 e3       	ldi	r24, 0x32	; 50
     ab2:	90 e0       	ldi	r25, 0x00	; 0
     ab4:	fc 01       	movw	r30, r24
     ab6:	80 81       	ld	r24, Z
     ab8:	48 2f       	mov	r20, r24
     aba:	8a 81       	ldd	r24, Y+2	; 0x02
     abc:	28 2f       	mov	r18, r24
     abe:	30 e0       	ldi	r19, 0x00	; 0
     ac0:	81 e0       	ldi	r24, 0x01	; 1
     ac2:	90 e0       	ldi	r25, 0x00	; 0
     ac4:	02 c0       	rjmp	.+4      	; 0xaca <.L2^B16>

00000ac6 <.L1^B16>:
     ac6:	88 0f       	add	r24, r24
     ac8:	99 1f       	adc	r25, r25

00000aca <.L2^B16>:
     aca:	2a 95       	dec	r18
     acc:	e2 f7       	brpl	.-8      	; 0xac6 <.L1^B16>
     ace:	80 95       	com	r24
     ad0:	24 2f       	mov	r18, r20
     ad2:	28 23       	and	r18, r24
     ad4:	82 e3       	ldi	r24, 0x32	; 50
     ad6:	90 e0       	ldi	r25, 0x00	; 0
     ad8:	fc 01       	movw	r30, r24
     ada:	20 83       	st	Z, r18

00000adc <.LM51>:
     adc:	01 c0       	rjmp	.+2      	; 0xae0 <.L18>

00000ade <.L31>:
	...

00000ae0 <.L18>:
     ae0:	00 00       	nop
     ae2:	0f 90       	pop	r0
     ae4:	0f 90       	pop	r0
     ae6:	0f 90       	pop	r0
     ae8:	df 91       	pop	r29
     aea:	cf 91       	pop	r28
     aec:	08 95       	ret

00000aee <GPIO_readPin>:
     aee:	cf 93       	push	r28
     af0:	df 93       	push	r29
     af2:	00 d0       	rcall	.+0      	; 0xaf4 <L0^A>

00000af4 <L0^A>:
     af4:	0f 92       	push	r0
     af6:	cd b7       	in	r28, 0x3d	; 61
     af8:	de b7       	in	r29, 0x3e	; 62
     afa:	8a 83       	std	Y+2, r24	; 0x02
     afc:	6b 83       	std	Y+3, r22	; 0x03

00000afe <.LM55>:
     afe:	19 82       	std	Y+1, r1	; 0x01

00000b00 <.LM56>:
     b00:	8b 81       	ldd	r24, Y+3	; 0x03
     b02:	88 30       	cpi	r24, 0x08	; 8
     b04:	08 f0       	brcs	.+2      	; 0xb08 <.LM57>

00000b06 <L0^A>:
     b06:	77 c0       	rjmp	.+238    	; 0xbf6 <.L48>

00000b08 <.LM57>:
     b08:	8a 81       	ldd	r24, Y+2	; 0x02
     b0a:	84 30       	cpi	r24, 0x04	; 4
     b0c:	08 f0       	brcs	.+2      	; 0xb10 <.LM58>

00000b0e <L0^A>:
     b0e:	74 c0       	rjmp	.+232    	; 0xbf8 <.L34>

00000b10 <.LM58>:
     b10:	8a 81       	ldd	r24, Y+2	; 0x02
     b12:	88 2f       	mov	r24, r24
     b14:	90 e0       	ldi	r25, 0x00	; 0
     b16:	83 30       	cpi	r24, 0x03	; 3
     b18:	91 05       	cpc	r25, r1
     b1a:	09 f4       	brne	.+2      	; 0xb1e <L0^A+0x2>

00000b1c <L0^A>:
     b1c:	55 c0       	rjmp	.+170    	; 0xbc8 <.L35>
     b1e:	84 30       	cpi	r24, 0x04	; 4
     b20:	91 05       	cpc	r25, r1
     b22:	0c f0       	brlt	.+2      	; 0xb26 <L0^A+0x2>

00000b24 <L0^A>:
     b24:	69 c0       	rjmp	.+210    	; 0xbf8 <.L34>
     b26:	82 30       	cpi	r24, 0x02	; 2
     b28:	91 05       	cpc	r25, r1
     b2a:	b9 f1       	breq	.+110    	; 0xb9a <.L36>
     b2c:	83 30       	cpi	r24, 0x03	; 3
     b2e:	91 05       	cpc	r25, r1
     b30:	0c f0       	brlt	.+2      	; 0xb34 <L0^A+0x2>

00000b32 <L0^A>:
     b32:	62 c0       	rjmp	.+196    	; 0xbf8 <.L34>
     b34:	00 97       	sbiw	r24, 0x00	; 0
     b36:	19 f0       	breq	.+6      	; 0xb3e <.L37>
     b38:	01 97       	sbiw	r24, 0x01	; 1
     b3a:	c1 f0       	breq	.+48     	; 0xb6c <.L38>
     b3c:	5d c0       	rjmp	.+186    	; 0xbf8 <.L34>

00000b3e <.L37>:
     b3e:	89 e3       	ldi	r24, 0x39	; 57
     b40:	90 e0       	ldi	r25, 0x00	; 0
     b42:	fc 01       	movw	r30, r24
     b44:	80 81       	ld	r24, Z
     b46:	88 2f       	mov	r24, r24
     b48:	90 e0       	ldi	r25, 0x00	; 0
     b4a:	2b 81       	ldd	r18, Y+3	; 0x03
     b4c:	22 2f       	mov	r18, r18
     b4e:	30 e0       	ldi	r19, 0x00	; 0
     b50:	02 c0       	rjmp	.+4      	; 0xb56 <.L2^B17>

00000b52 <.L1^B17>:
     b52:	95 95       	asr	r25
     b54:	87 95       	ror	r24

00000b56 <.L2^B17>:
     b56:	2a 95       	dec	r18
     b58:	e2 f7       	brpl	.-8      	; 0xb52 <.L1^B17>
     b5a:	81 70       	andi	r24, 0x01	; 1
     b5c:	99 27       	eor	r25, r25

00000b5e <.LM60>:
     b5e:	89 2b       	or	r24, r25
     b60:	19 f0       	breq	.+6      	; 0xb68 <.L39>

00000b62 <.LM61>:
     b62:	81 e0       	ldi	r24, 0x01	; 1
     b64:	89 83       	std	Y+1, r24	; 0x01

00000b66 <.LM62>:
     b66:	48 c0       	rjmp	.+144    	; 0xbf8 <.L34>

00000b68 <.L39>:
     b68:	19 82       	std	Y+1, r1	; 0x01

00000b6a <.LM64>:
     b6a:	46 c0       	rjmp	.+140    	; 0xbf8 <.L34>

00000b6c <.L38>:
     b6c:	86 e3       	ldi	r24, 0x36	; 54
     b6e:	90 e0       	ldi	r25, 0x00	; 0
     b70:	fc 01       	movw	r30, r24
     b72:	80 81       	ld	r24, Z
     b74:	88 2f       	mov	r24, r24
     b76:	90 e0       	ldi	r25, 0x00	; 0
     b78:	2b 81       	ldd	r18, Y+3	; 0x03
     b7a:	22 2f       	mov	r18, r18
     b7c:	30 e0       	ldi	r19, 0x00	; 0
     b7e:	02 c0       	rjmp	.+4      	; 0xb84 <.L2^B18>

00000b80 <.L1^B18>:
     b80:	95 95       	asr	r25
     b82:	87 95       	ror	r24

00000b84 <.L2^B18>:
     b84:	2a 95       	dec	r18
     b86:	e2 f7       	brpl	.-8      	; 0xb80 <.L1^B18>
     b88:	81 70       	andi	r24, 0x01	; 1
     b8a:	99 27       	eor	r25, r25

00000b8c <.LM66>:
     b8c:	89 2b       	or	r24, r25
     b8e:	19 f0       	breq	.+6      	; 0xb96 <.L41>

00000b90 <.LM67>:
     b90:	81 e0       	ldi	r24, 0x01	; 1
     b92:	89 83       	std	Y+1, r24	; 0x01

00000b94 <.LM68>:
     b94:	31 c0       	rjmp	.+98     	; 0xbf8 <.L34>

00000b96 <.L41>:
     b96:	19 82       	std	Y+1, r1	; 0x01

00000b98 <.LM70>:
     b98:	2f c0       	rjmp	.+94     	; 0xbf8 <.L34>

00000b9a <.L36>:
     b9a:	83 e3       	ldi	r24, 0x33	; 51
     b9c:	90 e0       	ldi	r25, 0x00	; 0
     b9e:	fc 01       	movw	r30, r24
     ba0:	80 81       	ld	r24, Z
     ba2:	88 2f       	mov	r24, r24
     ba4:	90 e0       	ldi	r25, 0x00	; 0
     ba6:	2b 81       	ldd	r18, Y+3	; 0x03
     ba8:	22 2f       	mov	r18, r18
     baa:	30 e0       	ldi	r19, 0x00	; 0
     bac:	02 c0       	rjmp	.+4      	; 0xbb2 <.L2^B19>

00000bae <.L1^B19>:
     bae:	95 95       	asr	r25
     bb0:	87 95       	ror	r24

00000bb2 <.L2^B19>:
     bb2:	2a 95       	dec	r18
     bb4:	e2 f7       	brpl	.-8      	; 0xbae <.L1^B19>
     bb6:	81 70       	andi	r24, 0x01	; 1
     bb8:	99 27       	eor	r25, r25

00000bba <.LM72>:
     bba:	89 2b       	or	r24, r25
     bbc:	19 f0       	breq	.+6      	; 0xbc4 <.L43>

00000bbe <.LM73>:
     bbe:	81 e0       	ldi	r24, 0x01	; 1
     bc0:	89 83       	std	Y+1, r24	; 0x01

00000bc2 <.LM74>:
     bc2:	1a c0       	rjmp	.+52     	; 0xbf8 <.L34>

00000bc4 <.L43>:
     bc4:	19 82       	std	Y+1, r1	; 0x01

00000bc6 <.LM76>:
     bc6:	18 c0       	rjmp	.+48     	; 0xbf8 <.L34>

00000bc8 <.L35>:
     bc8:	80 e3       	ldi	r24, 0x30	; 48
     bca:	90 e0       	ldi	r25, 0x00	; 0
     bcc:	fc 01       	movw	r30, r24
     bce:	80 81       	ld	r24, Z
     bd0:	88 2f       	mov	r24, r24
     bd2:	90 e0       	ldi	r25, 0x00	; 0
     bd4:	2b 81       	ldd	r18, Y+3	; 0x03
     bd6:	22 2f       	mov	r18, r18
     bd8:	30 e0       	ldi	r19, 0x00	; 0
     bda:	02 c0       	rjmp	.+4      	; 0xbe0 <.L2^B20>

00000bdc <.L1^B20>:
     bdc:	95 95       	asr	r25
     bde:	87 95       	ror	r24

00000be0 <.L2^B20>:
     be0:	2a 95       	dec	r18
     be2:	e2 f7       	brpl	.-8      	; 0xbdc <.L1^B20>
     be4:	81 70       	andi	r24, 0x01	; 1
     be6:	99 27       	eor	r25, r25

00000be8 <.LM78>:
     be8:	89 2b       	or	r24, r25
     bea:	19 f0       	breq	.+6      	; 0xbf2 <.L45>

00000bec <.LM79>:
     bec:	81 e0       	ldi	r24, 0x01	; 1
     bee:	89 83       	std	Y+1, r24	; 0x01

00000bf0 <.LM80>:
     bf0:	03 c0       	rjmp	.+6      	; 0xbf8 <.L34>

00000bf2 <.L45>:
     bf2:	19 82       	std	Y+1, r1	; 0x01

00000bf4 <.LM82>:
     bf4:	01 c0       	rjmp	.+2      	; 0xbf8 <.L34>

00000bf6 <.L48>:
	...

00000bf8 <.L34>:
     bf8:	89 81       	ldd	r24, Y+1	; 0x01

00000bfa <.LM85>:
     bfa:	0f 90       	pop	r0
     bfc:	0f 90       	pop	r0
     bfe:	0f 90       	pop	r0
     c00:	df 91       	pop	r29
     c02:	cf 91       	pop	r28
     c04:	08 95       	ret

00000c06 <GPIO_setupPortDirection>:
     c06:	cf 93       	push	r28
     c08:	df 93       	push	r29
     c0a:	00 d0       	rcall	.+0      	; 0xc0c <L0^A>

00000c0c <L0^A>:
     c0c:	cd b7       	in	r28, 0x3d	; 61
     c0e:	de b7       	in	r29, 0x3e	; 62
     c10:	89 83       	std	Y+1, r24	; 0x01
     c12:	6a 83       	std	Y+2, r22	; 0x02

00000c14 <.LM87>:
     c14:	89 81       	ldd	r24, Y+1	; 0x01
     c16:	84 30       	cpi	r24, 0x04	; 4
     c18:	60 f5       	brcc	.+88     	; 0xc72 <.L50>

00000c1a <.LM88>:
     c1a:	89 81       	ldd	r24, Y+1	; 0x01
     c1c:	88 2f       	mov	r24, r24
     c1e:	90 e0       	ldi	r25, 0x00	; 0
     c20:	83 30       	cpi	r24, 0x03	; 3
     c22:	91 05       	cpc	r25, r1
     c24:	01 f1       	breq	.+64     	; 0xc66 <.L51>
     c26:	84 30       	cpi	r24, 0x04	; 4
     c28:	91 05       	cpc	r25, r1
     c2a:	1c f5       	brge	.+70     	; 0xc72 <.L50>
     c2c:	82 30       	cpi	r24, 0x02	; 2
     c2e:	91 05       	cpc	r25, r1
     c30:	a1 f0       	breq	.+40     	; 0xc5a <.L52>
     c32:	83 30       	cpi	r24, 0x03	; 3
     c34:	91 05       	cpc	r25, r1
     c36:	ec f4       	brge	.+58     	; 0xc72 <.L50>
     c38:	00 97       	sbiw	r24, 0x00	; 0
     c3a:	19 f0       	breq	.+6      	; 0xc42 <.L53>
     c3c:	01 97       	sbiw	r24, 0x01	; 1
     c3e:	39 f0       	breq	.+14     	; 0xc4e <.L54>

00000c40 <.LM89>:
     c40:	18 c0       	rjmp	.+48     	; 0xc72 <.L50>

00000c42 <.L53>:
     c42:	8a e3       	ldi	r24, 0x3A	; 58
     c44:	90 e0       	ldi	r25, 0x00	; 0

00000c46 <.LM91>:
     c46:	2a 81       	ldd	r18, Y+2	; 0x02
     c48:	fc 01       	movw	r30, r24
     c4a:	20 83       	st	Z, r18

00000c4c <.LM92>:
     c4c:	12 c0       	rjmp	.+36     	; 0xc72 <.L50>

00000c4e <.L54>:
     c4e:	87 e3       	ldi	r24, 0x37	; 55
     c50:	90 e0       	ldi	r25, 0x00	; 0

00000c52 <.LM94>:
     c52:	2a 81       	ldd	r18, Y+2	; 0x02
     c54:	fc 01       	movw	r30, r24
     c56:	20 83       	st	Z, r18

00000c58 <.LM95>:
     c58:	0c c0       	rjmp	.+24     	; 0xc72 <.L50>

00000c5a <.L52>:
     c5a:	84 e3       	ldi	r24, 0x34	; 52
     c5c:	90 e0       	ldi	r25, 0x00	; 0

00000c5e <.LM97>:
     c5e:	2a 81       	ldd	r18, Y+2	; 0x02
     c60:	fc 01       	movw	r30, r24
     c62:	20 83       	st	Z, r18

00000c64 <.LM98>:
     c64:	06 c0       	rjmp	.+12     	; 0xc72 <.L50>

00000c66 <.L51>:
     c66:	81 e3       	ldi	r24, 0x31	; 49
     c68:	90 e0       	ldi	r25, 0x00	; 0

00000c6a <.LM100>:
     c6a:	2a 81       	ldd	r18, Y+2	; 0x02
     c6c:	fc 01       	movw	r30, r24
     c6e:	20 83       	st	Z, r18

00000c70 <.LM101>:
	...

00000c72 <.L50>:
     c72:	00 00       	nop
     c74:	0f 90       	pop	r0
     c76:	0f 90       	pop	r0
     c78:	df 91       	pop	r29
     c7a:	cf 91       	pop	r28
     c7c:	08 95       	ret

00000c7e <GPIO_writePort>:
     c7e:	cf 93       	push	r28
     c80:	df 93       	push	r29
     c82:	00 d0       	rcall	.+0      	; 0xc84 <L0^A>

00000c84 <L0^A>:
     c84:	cd b7       	in	r28, 0x3d	; 61
     c86:	de b7       	in	r29, 0x3e	; 62
     c88:	89 83       	std	Y+1, r24	; 0x01
     c8a:	6a 83       	std	Y+2, r22	; 0x02

00000c8c <.LM104>:
     c8c:	89 81       	ldd	r24, Y+1	; 0x01
     c8e:	84 30       	cpi	r24, 0x04	; 4
     c90:	60 f5       	brcc	.+88     	; 0xcea <.L57>

00000c92 <.LM105>:
     c92:	89 81       	ldd	r24, Y+1	; 0x01
     c94:	88 2f       	mov	r24, r24
     c96:	90 e0       	ldi	r25, 0x00	; 0
     c98:	83 30       	cpi	r24, 0x03	; 3
     c9a:	91 05       	cpc	r25, r1
     c9c:	01 f1       	breq	.+64     	; 0xcde <.L58>
     c9e:	84 30       	cpi	r24, 0x04	; 4
     ca0:	91 05       	cpc	r25, r1
     ca2:	1c f5       	brge	.+70     	; 0xcea <.L57>
     ca4:	82 30       	cpi	r24, 0x02	; 2
     ca6:	91 05       	cpc	r25, r1
     ca8:	a1 f0       	breq	.+40     	; 0xcd2 <.L59>
     caa:	83 30       	cpi	r24, 0x03	; 3
     cac:	91 05       	cpc	r25, r1
     cae:	ec f4       	brge	.+58     	; 0xcea <.L57>
     cb0:	00 97       	sbiw	r24, 0x00	; 0
     cb2:	19 f0       	breq	.+6      	; 0xcba <.L60>
     cb4:	01 97       	sbiw	r24, 0x01	; 1
     cb6:	39 f0       	breq	.+14     	; 0xcc6 <.L61>

00000cb8 <.LM106>:
     cb8:	18 c0       	rjmp	.+48     	; 0xcea <.L57>

00000cba <.L60>:
     cba:	8b e3       	ldi	r24, 0x3B	; 59
     cbc:	90 e0       	ldi	r25, 0x00	; 0

00000cbe <.LM108>:
     cbe:	2a 81       	ldd	r18, Y+2	; 0x02
     cc0:	fc 01       	movw	r30, r24
     cc2:	20 83       	st	Z, r18

00000cc4 <.LM109>:
     cc4:	12 c0       	rjmp	.+36     	; 0xcea <.L57>

00000cc6 <.L61>:
     cc6:	88 e3       	ldi	r24, 0x38	; 56
     cc8:	90 e0       	ldi	r25, 0x00	; 0

00000cca <.LM111>:
     cca:	2a 81       	ldd	r18, Y+2	; 0x02
     ccc:	fc 01       	movw	r30, r24
     cce:	20 83       	st	Z, r18

00000cd0 <.LM112>:
     cd0:	0c c0       	rjmp	.+24     	; 0xcea <.L57>

00000cd2 <.L59>:
     cd2:	85 e3       	ldi	r24, 0x35	; 53
     cd4:	90 e0       	ldi	r25, 0x00	; 0

00000cd6 <.LM114>:
     cd6:	2a 81       	ldd	r18, Y+2	; 0x02
     cd8:	fc 01       	movw	r30, r24
     cda:	20 83       	st	Z, r18

00000cdc <.LM115>:
     cdc:	06 c0       	rjmp	.+12     	; 0xcea <.L57>

00000cde <.L58>:
     cde:	82 e3       	ldi	r24, 0x32	; 50
     ce0:	90 e0       	ldi	r25, 0x00	; 0

00000ce2 <.LM117>:
     ce2:	2a 81       	ldd	r18, Y+2	; 0x02
     ce4:	fc 01       	movw	r30, r24
     ce6:	20 83       	st	Z, r18

00000ce8 <.LM118>:
	...

00000cea <.L57>:
     cea:	00 00       	nop
     cec:	0f 90       	pop	r0
     cee:	0f 90       	pop	r0
     cf0:	df 91       	pop	r29
     cf2:	cf 91       	pop	r28
     cf4:	08 95       	ret

00000cf6 <GPIO_readPort>:
     cf6:	cf 93       	push	r28
     cf8:	df 93       	push	r29
     cfa:	00 d0       	rcall	.+0      	; 0xcfc <L0^A>

00000cfc <L0^A>:
     cfc:	cd b7       	in	r28, 0x3d	; 61
     cfe:	de b7       	in	r29, 0x3e	; 62
     d00:	8a 83       	std	Y+2, r24	; 0x02

00000d02 <.LM121>:
     d02:	19 82       	std	Y+1, r1	; 0x01

00000d04 <.LM122>:
     d04:	8a 81       	ldd	r24, Y+2	; 0x02
     d06:	84 30       	cpi	r24, 0x04	; 4
     d08:	60 f5       	brcc	.+88     	; 0xd62 <.L64>

00000d0a <.LM123>:
     d0a:	8a 81       	ldd	r24, Y+2	; 0x02
     d0c:	88 2f       	mov	r24, r24
     d0e:	90 e0       	ldi	r25, 0x00	; 0
     d10:	83 30       	cpi	r24, 0x03	; 3
     d12:	91 05       	cpc	r25, r1
     d14:	01 f1       	breq	.+64     	; 0xd56 <.L65>
     d16:	84 30       	cpi	r24, 0x04	; 4
     d18:	91 05       	cpc	r25, r1
     d1a:	1c f5       	brge	.+70     	; 0xd62 <.L64>
     d1c:	82 30       	cpi	r24, 0x02	; 2
     d1e:	91 05       	cpc	r25, r1
     d20:	a1 f0       	breq	.+40     	; 0xd4a <.L66>
     d22:	83 30       	cpi	r24, 0x03	; 3
     d24:	91 05       	cpc	r25, r1
     d26:	ec f4       	brge	.+58     	; 0xd62 <.L64>
     d28:	00 97       	sbiw	r24, 0x00	; 0
     d2a:	19 f0       	breq	.+6      	; 0xd32 <.L67>
     d2c:	01 97       	sbiw	r24, 0x01	; 1
     d2e:	39 f0       	breq	.+14     	; 0xd3e <.L68>
     d30:	18 c0       	rjmp	.+48     	; 0xd62 <.L64>

00000d32 <.L67>:
     d32:	89 e3       	ldi	r24, 0x39	; 57
     d34:	90 e0       	ldi	r25, 0x00	; 0

00000d36 <.LM125>:
     d36:	fc 01       	movw	r30, r24
     d38:	80 81       	ld	r24, Z
     d3a:	89 83       	std	Y+1, r24	; 0x01

00000d3c <.LM126>:
     d3c:	12 c0       	rjmp	.+36     	; 0xd62 <.L64>

00000d3e <.L68>:
     d3e:	86 e3       	ldi	r24, 0x36	; 54
     d40:	90 e0       	ldi	r25, 0x00	; 0

00000d42 <.LM128>:
     d42:	fc 01       	movw	r30, r24
     d44:	80 81       	ld	r24, Z
     d46:	89 83       	std	Y+1, r24	; 0x01

00000d48 <.LM129>:
     d48:	0c c0       	rjmp	.+24     	; 0xd62 <.L64>

00000d4a <.L66>:
     d4a:	83 e3       	ldi	r24, 0x33	; 51
     d4c:	90 e0       	ldi	r25, 0x00	; 0

00000d4e <.LM131>:
     d4e:	fc 01       	movw	r30, r24
     d50:	80 81       	ld	r24, Z
     d52:	89 83       	std	Y+1, r24	; 0x01

00000d54 <.LM132>:
     d54:	06 c0       	rjmp	.+12     	; 0xd62 <.L64>

00000d56 <.L65>:
     d56:	80 e3       	ldi	r24, 0x30	; 48
     d58:	90 e0       	ldi	r25, 0x00	; 0

00000d5a <.LM134>:
     d5a:	fc 01       	movw	r30, r24
     d5c:	80 81       	ld	r24, Z
     d5e:	89 83       	std	Y+1, r24	; 0x01

00000d60 <.LM135>:
	...

00000d62 <.L64>:
     d62:	89 81       	ldd	r24, Y+1	; 0x01

00000d64 <.LM137>:
     d64:	0f 90       	pop	r0
     d66:	0f 90       	pop	r0
     d68:	df 91       	pop	r29
     d6a:	cf 91       	pop	r28
     d6c:	08 95       	ret

00000d6e <__vector_6>:
     d6e:	1f 92       	push	r1
     d70:	0f 92       	push	r0
     d72:	0f b6       	in	r0, 0x3f	; 63
     d74:	0f 92       	push	r0
     d76:	11 24       	eor	r1, r1
     d78:	2f 93       	push	r18
     d7a:	3f 93       	push	r19
     d7c:	4f 93       	push	r20
     d7e:	5f 93       	push	r21
     d80:	6f 93       	push	r22
     d82:	7f 93       	push	r23
     d84:	8f 93       	push	r24
     d86:	9f 93       	push	r25
     d88:	af 93       	push	r26
     d8a:	bf 93       	push	r27
     d8c:	ef 93       	push	r30
     d8e:	ff 93       	push	r31
     d90:	cf 93       	push	r28
     d92:	df 93       	push	r29
     d94:	cd b7       	in	r28, 0x3d	; 61
     d96:	de b7       	in	r29, 0x3e	; 62

00000d98 <.LM1>:
     d98:	80 91 99 00 	lds	r24, 0x0099	; 0x800099 <g_callBackPtr>
     d9c:	90 91 9a 00 	lds	r25, 0x009A	; 0x80009a <g_callBackPtr+0x1>

00000da0 <.LM2>:
     da0:	89 2b       	or	r24, r25
     da2:	31 f0       	breq	.+12     	; 0xdb0 <.L3>

00000da4 <.LM3>:
     da4:	80 91 99 00 	lds	r24, 0x0099	; 0x800099 <g_callBackPtr>
     da8:	90 91 9a 00 	lds	r25, 0x009A	; 0x80009a <g_callBackPtr+0x1>
     dac:	fc 01       	movw	r30, r24
     dae:	09 95       	icall

00000db0 <.L3>:
     db0:	00 00       	nop
     db2:	df 91       	pop	r29
     db4:	cf 91       	pop	r28
     db6:	ff 91       	pop	r31
     db8:	ef 91       	pop	r30
     dba:	bf 91       	pop	r27
     dbc:	af 91       	pop	r26
     dbe:	9f 91       	pop	r25
     dc0:	8f 91       	pop	r24
     dc2:	7f 91       	pop	r23
     dc4:	6f 91       	pop	r22
     dc6:	5f 91       	pop	r21
     dc8:	4f 91       	pop	r20
     dca:	3f 91       	pop	r19
     dcc:	2f 91       	pop	r18
     dce:	0f 90       	pop	r0
     dd0:	0f be       	out	0x3f, r0	; 63
     dd2:	0f 90       	pop	r0
     dd4:	1f 90       	pop	r1
     dd6:	18 95       	reti

00000dd8 <ICU_init>:
     dd8:	cf 93       	push	r28
     dda:	df 93       	push	r29
     ddc:	00 d0       	rcall	.+0      	; 0xdde <L0^A>

00000dde <L0^A>:
     dde:	cd b7       	in	r28, 0x3d	; 61
     de0:	de b7       	in	r29, 0x3e	; 62
     de2:	9a 83       	std	Y+2, r25	; 0x02
     de4:	89 83       	std	Y+1, r24	; 0x01

00000de6 <.LM6>:
     de6:	81 e3       	ldi	r24, 0x31	; 49
     de8:	90 e0       	ldi	r25, 0x00	; 0
     dea:	fc 01       	movw	r30, r24
     dec:	40 81       	ld	r20, Z
     dee:	81 e3       	ldi	r24, 0x31	; 49
     df0:	90 e0       	ldi	r25, 0x00	; 0
     df2:	4f 7b       	andi	r20, 0xBF	; 191
     df4:	fc 01       	movw	r30, r24
     df6:	40 83       	st	Z, r20

00000df8 <.LM7>:
     df8:	8f e4       	ldi	r24, 0x4F	; 79
     dfa:	90 e0       	ldi	r25, 0x00	; 0

00000dfc <.LM8>:
     dfc:	4c e0       	ldi	r20, 0x0C	; 12
     dfe:	fc 01       	movw	r30, r24
     e00:	40 83       	st	Z, r20

00000e02 <.LM9>:
     e02:	8e e4       	ldi	r24, 0x4E	; 78
     e04:	90 e0       	ldi	r25, 0x00	; 0
     e06:	fc 01       	movw	r30, r24
     e08:	80 81       	ld	r24, Z

00000e0a <.LM10>:
     e0a:	48 2f       	mov	r20, r24
     e0c:	48 7f       	andi	r20, 0xF8	; 248

00000e0e <.LM11>:
     e0e:	89 81       	ldd	r24, Y+1	; 0x01
     e10:	9a 81       	ldd	r25, Y+2	; 0x02
     e12:	fc 01       	movw	r30, r24
     e14:	80 81       	ld	r24, Z

00000e16 <.LM12>:
     e16:	48 2b       	or	r20, r24

00000e18 <.LM13>:
     e18:	8e e4       	ldi	r24, 0x4E	; 78
     e1a:	90 e0       	ldi	r25, 0x00	; 0

00000e1c <.LM14>:
     e1c:	fc 01       	movw	r30, r24
     e1e:	40 83       	st	Z, r20

00000e20 <.LM15>:
     e20:	8e e4       	ldi	r24, 0x4E	; 78
     e22:	90 e0       	ldi	r25, 0x00	; 0
     e24:	fc 01       	movw	r30, r24
     e26:	80 81       	ld	r24, Z

00000e28 <.LM16>:
     e28:	48 2f       	mov	r20, r24
     e2a:	4f 7b       	andi	r20, 0xBF	; 191

00000e2c <.LM17>:
     e2c:	89 81       	ldd	r24, Y+1	; 0x01
     e2e:	9a 81       	ldd	r25, Y+2	; 0x02
     e30:	fc 01       	movw	r30, r24
     e32:	81 81       	ldd	r24, Z+1	; 0x01
     e34:	88 2f       	mov	r24, r24
     e36:	90 e0       	ldi	r25, 0x00	; 0

00000e38 <.LM18>:
     e38:	38 2f       	mov	r19, r24
     e3a:	36 95       	lsr	r19
     e3c:	36 95       	lsr	r19
     e3e:	28 2f       	mov	r18, r24
     e40:	22 95       	swap	r18
     e42:	22 0f       	add	r18, r18
     e44:	22 0f       	add	r18, r18
     e46:	20 7c       	andi	r18, 0xC0	; 192

00000e48 <.LM19>:
     e48:	82 2f       	mov	r24, r18
     e4a:	24 2f       	mov	r18, r20
     e4c:	28 2b       	or	r18, r24

00000e4e <.LM20>:
     e4e:	8e e4       	ldi	r24, 0x4E	; 78
     e50:	90 e0       	ldi	r25, 0x00	; 0

00000e52 <.LM21>:
     e52:	fc 01       	movw	r30, r24
     e54:	20 83       	st	Z, r18

00000e56 <.LM22>:
     e56:	8c e4       	ldi	r24, 0x4C	; 76
     e58:	90 e0       	ldi	r25, 0x00	; 0

00000e5a <.LM23>:
     e5a:	fc 01       	movw	r30, r24
     e5c:	11 82       	std	Z+1, r1	; 0x01
     e5e:	10 82       	st	Z, r1

00000e60 <.LM24>:
     e60:	86 e4       	ldi	r24, 0x46	; 70
     e62:	90 e0       	ldi	r25, 0x00	; 0

00000e64 <.LM25>:
     e64:	fc 01       	movw	r30, r24
     e66:	11 82       	std	Z+1, r1	; 0x01
     e68:	10 82       	st	Z, r1

00000e6a <.LM26>:
     e6a:	89 e5       	ldi	r24, 0x59	; 89
     e6c:	90 e0       	ldi	r25, 0x00	; 0
     e6e:	fc 01       	movw	r30, r24
     e70:	20 81       	ld	r18, Z
     e72:	89 e5       	ldi	r24, 0x59	; 89
     e74:	90 e0       	ldi	r25, 0x00	; 0
     e76:	20 62       	ori	r18, 0x20	; 32
     e78:	fc 01       	movw	r30, r24
     e7a:	20 83       	st	Z, r18

00000e7c <.LM27>:
     e7c:	00 00       	nop
     e7e:	0f 90       	pop	r0
     e80:	0f 90       	pop	r0
     e82:	df 91       	pop	r29
     e84:	cf 91       	pop	r28
     e86:	08 95       	ret

00000e88 <ICU_setCallBack>:
     e88:	cf 93       	push	r28
     e8a:	df 93       	push	r29
     e8c:	00 d0       	rcall	.+0      	; 0xe8e <L0^A>

00000e8e <L0^A>:
     e8e:	cd b7       	in	r28, 0x3d	; 61
     e90:	de b7       	in	r29, 0x3e	; 62
     e92:	9a 83       	std	Y+2, r25	; 0x02
     e94:	89 83       	std	Y+1, r24	; 0x01

00000e96 <.LM29>:
     e96:	89 81       	ldd	r24, Y+1	; 0x01
     e98:	9a 81       	ldd	r25, Y+2	; 0x02
     e9a:	90 93 9a 00 	sts	0x009A, r25	; 0x80009a <g_callBackPtr+0x1>
     e9e:	80 93 99 00 	sts	0x0099, r24	; 0x800099 <g_callBackPtr>

00000ea2 <.LM30>:
     ea2:	00 00       	nop
     ea4:	0f 90       	pop	r0
     ea6:	0f 90       	pop	r0
     ea8:	df 91       	pop	r29
     eaa:	cf 91       	pop	r28
     eac:	08 95       	ret

00000eae <ICU_setEdgeDetectionType>:
     eae:	cf 93       	push	r28
     eb0:	df 93       	push	r29
     eb2:	0f 92       	push	r0
     eb4:	cd b7       	in	r28, 0x3d	; 61
     eb6:	de b7       	in	r29, 0x3e	; 62
     eb8:	89 83       	std	Y+1, r24	; 0x01

00000eba <.LM32>:
     eba:	8e e4       	ldi	r24, 0x4E	; 78
     ebc:	90 e0       	ldi	r25, 0x00	; 0
     ebe:	fc 01       	movw	r30, r24
     ec0:	80 81       	ld	r24, Z

00000ec2 <.LM33>:
     ec2:	48 2f       	mov	r20, r24
     ec4:	4f 7b       	andi	r20, 0xBF	; 191

00000ec6 <.LM34>:
     ec6:	89 81       	ldd	r24, Y+1	; 0x01
     ec8:	88 2f       	mov	r24, r24
     eca:	90 e0       	ldi	r25, 0x00	; 0
     ecc:	38 2f       	mov	r19, r24
     ece:	36 95       	lsr	r19
     ed0:	36 95       	lsr	r19
     ed2:	28 2f       	mov	r18, r24
     ed4:	22 95       	swap	r18
     ed6:	22 0f       	add	r18, r18
     ed8:	22 0f       	add	r18, r18
     eda:	20 7c       	andi	r18, 0xC0	; 192

00000edc <.LM35>:
     edc:	82 2f       	mov	r24, r18
     ede:	24 2f       	mov	r18, r20
     ee0:	28 2b       	or	r18, r24

00000ee2 <.LM36>:
     ee2:	8e e4       	ldi	r24, 0x4E	; 78
     ee4:	90 e0       	ldi	r25, 0x00	; 0

00000ee6 <.LM37>:
     ee6:	fc 01       	movw	r30, r24
     ee8:	20 83       	st	Z, r18

00000eea <.LM38>:
     eea:	00 00       	nop
     eec:	0f 90       	pop	r0
     eee:	df 91       	pop	r29
     ef0:	cf 91       	pop	r28
     ef2:	08 95       	ret

00000ef4 <ICU_getInputCaptureValue>:
     ef4:	cf 93       	push	r28
     ef6:	df 93       	push	r29
     ef8:	cd b7       	in	r28, 0x3d	; 61
     efa:	de b7       	in	r29, 0x3e	; 62

00000efc <.LM40>:
     efc:	86 e4       	ldi	r24, 0x46	; 70
     efe:	90 e0       	ldi	r25, 0x00	; 0
     f00:	fc 01       	movw	r30, r24
     f02:	80 81       	ld	r24, Z
     f04:	91 81       	ldd	r25, Z+1	; 0x01

00000f06 <.LM41>:
     f06:	df 91       	pop	r29
     f08:	cf 91       	pop	r28
     f0a:	08 95       	ret

00000f0c <ICU_clearTimerValue>:
     f0c:	cf 93       	push	r28
     f0e:	df 93       	push	r29
     f10:	cd b7       	in	r28, 0x3d	; 61
     f12:	de b7       	in	r29, 0x3e	; 62

00000f14 <.LM43>:
     f14:	8c e4       	ldi	r24, 0x4C	; 76
     f16:	90 e0       	ldi	r25, 0x00	; 0

00000f18 <.LM44>:
     f18:	fc 01       	movw	r30, r24
     f1a:	11 82       	std	Z+1, r1	; 0x01
     f1c:	10 82       	st	Z, r1

00000f1e <.LM45>:
     f1e:	00 00       	nop
     f20:	df 91       	pop	r29
     f22:	cf 91       	pop	r28
     f24:	08 95       	ret

00000f26 <ICU_deInit>:
     f26:	cf 93       	push	r28
     f28:	df 93       	push	r29
     f2a:	cd b7       	in	r28, 0x3d	; 61
     f2c:	de b7       	in	r29, 0x3e	; 62

00000f2e <.LM47>:
     f2e:	8f e4       	ldi	r24, 0x4F	; 79
     f30:	90 e0       	ldi	r25, 0x00	; 0

00000f32 <.LM48>:
     f32:	fc 01       	movw	r30, r24
     f34:	10 82       	st	Z, r1

00000f36 <.LM49>:
     f36:	8e e4       	ldi	r24, 0x4E	; 78
     f38:	90 e0       	ldi	r25, 0x00	; 0

00000f3a <.LM50>:
     f3a:	fc 01       	movw	r30, r24
     f3c:	10 82       	st	Z, r1

00000f3e <.LM51>:
     f3e:	8c e4       	ldi	r24, 0x4C	; 76
     f40:	90 e0       	ldi	r25, 0x00	; 0

00000f42 <.LM52>:
     f42:	fc 01       	movw	r30, r24
     f44:	11 82       	std	Z+1, r1	; 0x01
     f46:	10 82       	st	Z, r1

00000f48 <.LM53>:
     f48:	86 e4       	ldi	r24, 0x46	; 70
     f4a:	90 e0       	ldi	r25, 0x00	; 0

00000f4c <.LM54>:
     f4c:	fc 01       	movw	r30, r24
     f4e:	11 82       	std	Z+1, r1	; 0x01
     f50:	10 82       	st	Z, r1

00000f52 <.LM55>:
     f52:	89 e5       	ldi	r24, 0x59	; 89
     f54:	90 e0       	ldi	r25, 0x00	; 0
     f56:	fc 01       	movw	r30, r24
     f58:	20 81       	ld	r18, Z
     f5a:	89 e5       	ldi	r24, 0x59	; 89
     f5c:	90 e0       	ldi	r25, 0x00	; 0
     f5e:	2f 7d       	andi	r18, 0xDF	; 223
     f60:	fc 01       	movw	r30, r24
     f62:	20 83       	st	Z, r18

00000f64 <.LM56>:
     f64:	10 92 9a 00 	sts	0x009A, r1	; 0x80009a <g_callBackPtr+0x1>
     f68:	10 92 99 00 	sts	0x0099, r1	; 0x800099 <g_callBackPtr>

00000f6c <.LM57>:
     f6c:	00 00       	nop
     f6e:	df 91       	pop	r29
     f70:	cf 91       	pop	r28
     f72:	08 95       	ret

00000f74 <LCD_init>:
     f74:	cf 93       	push	r28
     f76:	df 93       	push	r29
     f78:	cd b7       	in	r28, 0x3d	; 61
     f7a:	de b7       	in	r29, 0x3e	; 62
     f7c:	a2 97       	sbiw	r28, 0x22	; 34
     f7e:	0f b6       	in	r0, 0x3f	; 63
     f80:	f8 94       	cli
     f82:	de bf       	out	0x3e, r29	; 62
     f84:	0f be       	out	0x3f, r0	; 63
     f86:	cd bf       	out	0x3d, r28	; 61

00000f88 <.LM1>:
     f88:	41 e0       	ldi	r20, 0x01	; 1
     f8a:	61 e0       	ldi	r22, 0x01	; 1
     f8c:	80 e0       	ldi	r24, 0x00	; 0
     f8e:	0e 94 95 03 	call	0x72a	; 0x72a <GPIO_setupPinDirection>

00000f92 <.LM2>:
     f92:	41 e0       	ldi	r20, 0x01	; 1
     f94:	62 e0       	ldi	r22, 0x02	; 2
     f96:	80 e0       	ldi	r24, 0x00	; 0
     f98:	0e 94 95 03 	call	0x72a	; 0x72a <GPIO_setupPinDirection>
     f9c:	80 e0       	ldi	r24, 0x00	; 0
     f9e:	90 e0       	ldi	r25, 0x00	; 0
     fa0:	a0 ea       	ldi	r26, 0xA0	; 160
     fa2:	b1 e4       	ldi	r27, 0x41	; 65
     fa4:	89 83       	std	Y+1, r24	; 0x01
     fa6:	9a 83       	std	Y+2, r25	; 0x02
     fa8:	ab 83       	std	Y+3, r26	; 0x03
     faa:	bc 83       	std	Y+4, r27	; 0x04

00000fac <.LM3>:
     fac:	20 e0       	ldi	r18, 0x00	; 0
     fae:	30 e0       	ldi	r19, 0x00	; 0
     fb0:	4a e7       	ldi	r20, 0x7A	; 122
     fb2:	55 e4       	ldi	r21, 0x45	; 69
     fb4:	69 81       	ldd	r22, Y+1	; 0x01
     fb6:	7a 81       	ldd	r23, Y+2	; 0x02
     fb8:	8b 81       	ldd	r24, Y+3	; 0x03
     fba:	9c 81       	ldd	r25, Y+4	; 0x04
     fbc:	0e 94 26 18 	call	0x304c	; 0x304c <__mulsf3>
     fc0:	6b 8b       	std	Y+19, r22	; 0x13
     fc2:	7c 8b       	std	Y+20, r23	; 0x14
     fc4:	8d 8b       	std	Y+21, r24	; 0x15
     fc6:	9e 8b       	std	Y+22, r25	; 0x16
     fc8:	8b 89       	ldd	r24, Y+19	; 0x13
     fca:	9c 89       	ldd	r25, Y+20	; 0x14
     fcc:	ad 89       	ldd	r26, Y+21	; 0x15
     fce:	be 89       	ldd	r27, Y+22	; 0x16
     fd0:	8d 83       	std	Y+5, r24	; 0x05
     fd2:	9e 83       	std	Y+6, r25	; 0x06
     fd4:	af 83       	std	Y+7, r26	; 0x07
     fd6:	b8 87       	std	Y+8, r27	; 0x08

00000fd8 <.LM4>:
     fd8:	20 e0       	ldi	r18, 0x00	; 0
     fda:	30 e0       	ldi	r19, 0x00	; 0
     fdc:	40 e8       	ldi	r20, 0x80	; 128
     fde:	5f e3       	ldi	r21, 0x3F	; 63
     fe0:	6d 81       	ldd	r22, Y+5	; 0x05
     fe2:	7e 81       	ldd	r23, Y+6	; 0x06
     fe4:	8f 81       	ldd	r24, Y+7	; 0x07
     fe6:	98 85       	ldd	r25, Y+8	; 0x08
     fe8:	0e 94 c9 16 	call	0x2d92	; 0x2d92 <__cmpsf2>
     fec:	88 23       	and	r24, r24
     fee:	2c f4       	brge	.+10     	; 0xffa <.L12>

00000ff0 <.LM5>:
     ff0:	81 e0       	ldi	r24, 0x01	; 1
     ff2:	90 e0       	ldi	r25, 0x00	; 0
     ff4:	9a 87       	std	Y+10, r25	; 0x0a
     ff6:	89 87       	std	Y+9, r24	; 0x09
     ff8:	54 c0       	rjmp	.+168    	; 0x10a2 <.L4>

00000ffa <.L12>:
     ffa:	20 e0       	ldi	r18, 0x00	; 0
     ffc:	3f ef       	ldi	r19, 0xFF	; 255
     ffe:	4f e7       	ldi	r20, 0x7F	; 127
    1000:	57 e4       	ldi	r21, 0x47	; 71
    1002:	6d 81       	ldd	r22, Y+5	; 0x05
    1004:	7e 81       	ldd	r23, Y+6	; 0x06
    1006:	8f 81       	ldd	r24, Y+7	; 0x07
    1008:	98 85       	ldd	r25, Y+8	; 0x08
    100a:	0e 94 21 18 	call	0x3042	; 0x3042 <__gesf2>
    100e:	18 16       	cp	r1, r24
    1010:	d4 f5       	brge	.+116    	; 0x1086 <.L13>

00001012 <.LM7>:
    1012:	20 e0       	ldi	r18, 0x00	; 0
    1014:	30 e0       	ldi	r19, 0x00	; 0
    1016:	40 e2       	ldi	r20, 0x20	; 32
    1018:	51 e4       	ldi	r21, 0x41	; 65
    101a:	69 81       	ldd	r22, Y+1	; 0x01
    101c:	7a 81       	ldd	r23, Y+2	; 0x02
    101e:	8b 81       	ldd	r24, Y+3	; 0x03
    1020:	9c 81       	ldd	r25, Y+4	; 0x04
    1022:	0e 94 26 18 	call	0x304c	; 0x304c <__mulsf3>
    1026:	6f 8b       	std	Y+23, r22	; 0x17
    1028:	78 8f       	std	Y+24, r23	; 0x18
    102a:	89 8f       	std	Y+25, r24	; 0x19
    102c:	9a 8f       	std	Y+26, r25	; 0x1a
    102e:	8f 89       	ldd	r24, Y+23	; 0x17
    1030:	98 8d       	ldd	r25, Y+24	; 0x18
    1032:	a9 8d       	ldd	r26, Y+25	; 0x19
    1034:	ba 8d       	ldd	r27, Y+26	; 0x1a
    1036:	8f 87       	std	Y+15, r24	; 0x0f
    1038:	98 8b       	std	Y+16, r25	; 0x10
    103a:	a9 8b       	std	Y+17, r26	; 0x11
    103c:	ba 8b       	std	Y+18, r27	; 0x12

0000103e <.LM8>:
    103e:	6f 85       	ldd	r22, Y+15	; 0x0f
    1040:	78 89       	ldd	r23, Y+16	; 0x10
    1042:	89 89       	ldd	r24, Y+17	; 0x11
    1044:	9a 89       	ldd	r25, Y+18	; 0x12
    1046:	0e 94 40 17 	call	0x2e80	; 0x2e80 <__fixunssfsi>
    104a:	6b 8f       	std	Y+27, r22	; 0x1b
    104c:	7c 8f       	std	Y+28, r23	; 0x1c
    104e:	8d 8f       	std	Y+29, r24	; 0x1d
    1050:	9e 8f       	std	Y+30, r25	; 0x1e
    1052:	ab 8d       	ldd	r26, Y+27	; 0x1b
    1054:	bc 8d       	ldd	r27, Y+28	; 0x1c
    1056:	ba 87       	std	Y+10, r27	; 0x0a
    1058:	a9 87       	std	Y+9, r26	; 0x09

0000105a <.LM9>:
    105a:	10 c0       	rjmp	.+32     	; 0x107c <.L7>

0000105c <.L8>:
    105c:	80 e9       	ldi	r24, 0x90	; 144
    105e:	91 e0       	ldi	r25, 0x01	; 1
    1060:	9c 87       	std	Y+12, r25	; 0x0c
    1062:	8b 87       	std	Y+11, r24	; 0x0b

00001064 <.LM10>:
    1064:	8b 85       	ldd	r24, Y+11	; 0x0b
    1066:	9c 85       	ldd	r25, Y+12	; 0x0c

00001068 <.L1^B1>:
    1068:	01 97       	sbiw	r24, 0x01	; 1
    106a:	f1 f7       	brne	.-4      	; 0x1068 <.L1^B1>
    106c:	9c 87       	std	Y+12, r25	; 0x0c
    106e:	8b 87       	std	Y+11, r24	; 0x0b

00001070 <.LM11>:
	...

00001072 <.LM12>:
    1072:	89 85       	ldd	r24, Y+9	; 0x09
    1074:	9a 85       	ldd	r25, Y+10	; 0x0a
    1076:	01 97       	sbiw	r24, 0x01	; 1
    1078:	9a 87       	std	Y+10, r25	; 0x0a
    107a:	89 87       	std	Y+9, r24	; 0x09

0000107c <.L7>:
    107c:	89 85       	ldd	r24, Y+9	; 0x09
    107e:	9a 85       	ldd	r25, Y+10	; 0x0a
    1080:	89 2b       	or	r24, r25
    1082:	61 f7       	brne	.-40     	; 0x105c <.L8>

00001084 <.LM14>:
    1084:	19 c0       	rjmp	.+50     	; 0x10b8 <.L9>

00001086 <.L13>:
    1086:	6d 81       	ldd	r22, Y+5	; 0x05
    1088:	7e 81       	ldd	r23, Y+6	; 0x06
    108a:	8f 81       	ldd	r24, Y+7	; 0x07
    108c:	98 85       	ldd	r25, Y+8	; 0x08
    108e:	0e 94 40 17 	call	0x2e80	; 0x2e80 <__fixunssfsi>
    1092:	6f 8f       	std	Y+31, r22	; 0x1f
    1094:	78 a3       	std	Y+32, r23	; 0x20
    1096:	89 a3       	std	Y+33, r24	; 0x21
    1098:	9a a3       	std	Y+34, r25	; 0x22
    109a:	8f 8d       	ldd	r24, Y+31	; 0x1f
    109c:	98 a1       	ldd	r25, Y+32	; 0x20
    109e:	9a 87       	std	Y+10, r25	; 0x0a
    10a0:	89 87       	std	Y+9, r24	; 0x09

000010a2 <.L4>:
    10a2:	89 85       	ldd	r24, Y+9	; 0x09
    10a4:	9a 85       	ldd	r25, Y+10	; 0x0a
    10a6:	9e 87       	std	Y+14, r25	; 0x0e
    10a8:	8d 87       	std	Y+13, r24	; 0x0d

000010aa <.LM16>:
    10aa:	8d 85       	ldd	r24, Y+13	; 0x0d
    10ac:	9e 85       	ldd	r25, Y+14	; 0x0e

000010ae <.L1^B2>:
    10ae:	01 97       	sbiw	r24, 0x01	; 1
    10b0:	f1 f7       	brne	.-4      	; 0x10ae <.L1^B2>
    10b2:	9e 87       	std	Y+14, r25	; 0x0e
    10b4:	8d 87       	std	Y+13, r24	; 0x0d

000010b6 <.LM17>:
	...

000010b8 <.L9>:
    10b8:	41 e0       	ldi	r20, 0x01	; 1
    10ba:	63 e0       	ldi	r22, 0x03	; 3
    10bc:	80 e0       	ldi	r24, 0x00	; 0
    10be:	0e 94 95 03 	call	0x72a	; 0x72a <GPIO_setupPinDirection>

000010c2 <.LM19>:
    10c2:	41 e0       	ldi	r20, 0x01	; 1
    10c4:	64 e0       	ldi	r22, 0x04	; 4
    10c6:	80 e0       	ldi	r24, 0x00	; 0
    10c8:	0e 94 95 03 	call	0x72a	; 0x72a <GPIO_setupPinDirection>

000010cc <.LM20>:
    10cc:	41 e0       	ldi	r20, 0x01	; 1
    10ce:	65 e0       	ldi	r22, 0x05	; 5
    10d0:	80 e0       	ldi	r24, 0x00	; 0
    10d2:	0e 94 95 03 	call	0x72a	; 0x72a <GPIO_setupPinDirection>

000010d6 <.LM21>:
    10d6:	41 e0       	ldi	r20, 0x01	; 1
    10d8:	66 e0       	ldi	r22, 0x06	; 6
    10da:	80 e0       	ldi	r24, 0x00	; 0
    10dc:	0e 94 95 03 	call	0x72a	; 0x72a <GPIO_setupPinDirection>

000010e0 <.LM22>:
    10e0:	83 e3       	ldi	r24, 0x33	; 51
    10e2:	0e 94 89 08 	call	0x1112	; 0x1112 <LCD_sendCommand>

000010e6 <.LM23>:
    10e6:	82 e3       	ldi	r24, 0x32	; 50
    10e8:	0e 94 89 08 	call	0x1112	; 0x1112 <LCD_sendCommand>

000010ec <.LM24>:
    10ec:	88 e2       	ldi	r24, 0x28	; 40
    10ee:	0e 94 89 08 	call	0x1112	; 0x1112 <LCD_sendCommand>

000010f2 <.LM25>:
    10f2:	8c e0       	ldi	r24, 0x0C	; 12
    10f4:	0e 94 89 08 	call	0x1112	; 0x1112 <LCD_sendCommand>

000010f8 <.LM26>:
    10f8:	81 e0       	ldi	r24, 0x01	; 1
    10fa:	0e 94 89 08 	call	0x1112	; 0x1112 <LCD_sendCommand>

000010fe <.LM27>:
    10fe:	00 00       	nop
    1100:	a2 96       	adiw	r28, 0x22	; 34
    1102:	0f b6       	in	r0, 0x3f	; 63
    1104:	f8 94       	cli
    1106:	de bf       	out	0x3e, r29	; 62
    1108:	0f be       	out	0x3f, r0	; 63
    110a:	cd bf       	out	0x3d, r28	; 61
    110c:	df 91       	pop	r29
    110e:	cf 91       	pop	r28
    1110:	08 95       	ret

00001112 <LCD_sendCommand>:
    1112:	0f 93       	push	r16
    1114:	1f 93       	push	r17
    1116:	cf 93       	push	r28
    1118:	df 93       	push	r29
    111a:	cd b7       	in	r28, 0x3d	; 61
    111c:	de b7       	in	r29, 0x3e	; 62
    111e:	cf 5e       	subi	r28, 0xEF	; 239
    1120:	d1 09       	sbc	r29, r1
    1122:	0f b6       	in	r0, 0x3f	; 63
    1124:	f8 94       	cli
    1126:	de bf       	out	0x3e, r29	; 62
    1128:	0f be       	out	0x3f, r0	; 63
    112a:	cd bf       	out	0x3d, r28	; 61
    112c:	9e 01       	movw	r18, r28
    112e:	2d 59       	subi	r18, 0x9D	; 157
    1130:	3f 4f       	sbci	r19, 0xFF	; 255
    1132:	d9 01       	movw	r26, r18
    1134:	8c 93       	st	X, r24

00001136 <.LM29>:
    1136:	40 e0       	ldi	r20, 0x00	; 0
    1138:	61 e0       	ldi	r22, 0x01	; 1
    113a:	80 e0       	ldi	r24, 0x00	; 0
    113c:	0e 94 86 04 	call	0x90c	; 0x90c <GPIO_writePin>
    1140:	9e 01       	movw	r18, r28
    1142:	2b 5a       	subi	r18, 0xAB	; 171
    1144:	3f 4f       	sbci	r19, 0xFF	; 255
    1146:	80 e0       	ldi	r24, 0x00	; 0
    1148:	90 e0       	ldi	r25, 0x00	; 0
    114a:	a0 e8       	ldi	r26, 0x80	; 128
    114c:	bf e3       	ldi	r27, 0x3F	; 63
    114e:	f9 01       	movw	r30, r18
    1150:	80 83       	st	Z, r24
    1152:	91 83       	std	Z+1, r25	; 0x01
    1154:	a2 83       	std	Z+2, r26	; 0x02
    1156:	b3 83       	std	Z+3, r27	; 0x03

00001158 <.LM30>:
    1158:	8e 01       	movw	r16, r28
    115a:	07 5a       	subi	r16, 0xA7	; 167
    115c:	1f 4f       	sbci	r17, 0xFF	; 255
    115e:	ce 01       	movw	r24, r28
    1160:	8b 5a       	subi	r24, 0xAB	; 171
    1162:	9f 4f       	sbci	r25, 0xFF	; 255
    1164:	20 e0       	ldi	r18, 0x00	; 0
    1166:	30 e0       	ldi	r19, 0x00	; 0
    1168:	4a e7       	ldi	r20, 0x7A	; 122
    116a:	55 e4       	ldi	r21, 0x45	; 69
    116c:	dc 01       	movw	r26, r24
    116e:	6d 91       	ld	r22, X+
    1170:	7d 91       	ld	r23, X+
    1172:	8d 91       	ld	r24, X+
    1174:	9c 91       	ld	r25, X
    1176:	0e 94 26 18 	call	0x304c	; 0x304c <__mulsf3>
    117a:	c0 58       	subi	r28, 0x80	; 128
    117c:	df 4f       	sbci	r29, 0xFF	; 255
    117e:	68 83       	st	Y, r22
    1180:	79 83       	std	Y+1, r23	; 0x01
    1182:	8a 83       	std	Y+2, r24	; 0x02
    1184:	9b 83       	std	Y+3, r25	; 0x03
    1186:	c0 58       	subi	r28, 0x80	; 128
    1188:	d0 40       	sbci	r29, 0x00	; 0
    118a:	c0 58       	subi	r28, 0x80	; 128
    118c:	df 4f       	sbci	r29, 0xFF	; 255
    118e:	28 81       	ld	r18, Y
    1190:	39 81       	ldd	r19, Y+1	; 0x01
    1192:	4a 81       	ldd	r20, Y+2	; 0x02
    1194:	5b 81       	ldd	r21, Y+3	; 0x03
    1196:	c0 58       	subi	r28, 0x80	; 128
    1198:	d0 40       	sbci	r29, 0x00	; 0
    119a:	d8 01       	movw	r26, r16
    119c:	2d 93       	st	X+, r18
    119e:	3d 93       	st	X+, r19
    11a0:	4d 93       	st	X+, r20
    11a2:	5c 93       	st	X, r21
    11a4:	13 97       	sbiw	r26, 0x03	; 3

000011a6 <.LM31>:
    11a6:	ce 01       	movw	r24, r28
    11a8:	87 5a       	subi	r24, 0xA7	; 167
    11aa:	9f 4f       	sbci	r25, 0xFF	; 255
    11ac:	20 e0       	ldi	r18, 0x00	; 0
    11ae:	30 e0       	ldi	r19, 0x00	; 0
    11b0:	40 e8       	ldi	r20, 0x80	; 128
    11b2:	5f e3       	ldi	r21, 0x3F	; 63
    11b4:	fc 01       	movw	r30, r24
    11b6:	60 81       	ld	r22, Z
    11b8:	71 81       	ldd	r23, Z+1	; 0x01
    11ba:	82 81       	ldd	r24, Z+2	; 0x02
    11bc:	93 81       	ldd	r25, Z+3	; 0x03
    11be:	0e 94 c9 16 	call	0x2d92	; 0x2d92 <__cmpsf2>
    11c2:	88 23       	and	r24, r24
    11c4:	4c f4       	brge	.+18     	; 0x11d8 <.L85>

000011c6 <.LM32>:
    11c6:	ce 01       	movw	r24, r28
    11c8:	83 5a       	subi	r24, 0xA3	; 163
    11ca:	9f 4f       	sbci	r25, 0xFF	; 255
    11cc:	21 e0       	ldi	r18, 0x01	; 1
    11ce:	30 e0       	ldi	r19, 0x00	; 0
    11d0:	dc 01       	movw	r26, r24
    11d2:	2d 93       	st	X+, r18
    11d4:	3c 93       	st	X, r19
    11d6:	a2 c0       	rjmp	.+324    	; 0x131c <.L17>

000011d8 <.L85>:
    11d8:	ce 01       	movw	r24, r28
    11da:	87 5a       	subi	r24, 0xA7	; 167
    11dc:	9f 4f       	sbci	r25, 0xFF	; 255
    11de:	20 e0       	ldi	r18, 0x00	; 0
    11e0:	3f ef       	ldi	r19, 0xFF	; 255
    11e2:	4f e7       	ldi	r20, 0x7F	; 127
    11e4:	57 e4       	ldi	r21, 0x47	; 71
    11e6:	fc 01       	movw	r30, r24
    11e8:	60 81       	ld	r22, Z
    11ea:	71 81       	ldd	r23, Z+1	; 0x01
    11ec:	82 81       	ldd	r24, Z+2	; 0x02
    11ee:	93 81       	ldd	r25, Z+3	; 0x03
    11f0:	0e 94 21 18 	call	0x3042	; 0x3042 <__gesf2>
    11f4:	18 16       	cp	r1, r24
    11f6:	0c f0       	brlt	.+2      	; 0x11fa <.LM34>

000011f8 <L0^A>:
    11f8:	73 c0       	rjmp	.+230    	; 0x12e0 <.L86>

000011fa <.LM34>:
    11fa:	ce 01       	movw	r24, r28
    11fc:	8b 5a       	subi	r24, 0xAB	; 171
    11fe:	9f 4f       	sbci	r25, 0xFF	; 255
    1200:	20 e0       	ldi	r18, 0x00	; 0
    1202:	30 e0       	ldi	r19, 0x00	; 0
    1204:	40 e2       	ldi	r20, 0x20	; 32
    1206:	51 e4       	ldi	r21, 0x41	; 65
    1208:	dc 01       	movw	r26, r24
    120a:	6d 91       	ld	r22, X+
    120c:	7d 91       	ld	r23, X+
    120e:	8d 91       	ld	r24, X+
    1210:	9c 91       	ld	r25, X
    1212:	0e 94 26 18 	call	0x304c	; 0x304c <__mulsf3>
    1216:	cc 57       	subi	r28, 0x7C	; 124
    1218:	df 4f       	sbci	r29, 0xFF	; 255
    121a:	68 83       	st	Y, r22
    121c:	79 83       	std	Y+1, r23	; 0x01
    121e:	8a 83       	std	Y+2, r24	; 0x02
    1220:	9b 83       	std	Y+3, r25	; 0x03
    1222:	c4 58       	subi	r28, 0x84	; 132
    1224:	d0 40       	sbci	r29, 0x00	; 0
    1226:	cc 57       	subi	r28, 0x7C	; 124
    1228:	df 4f       	sbci	r29, 0xFF	; 255
    122a:	28 81       	ld	r18, Y
    122c:	39 81       	ldd	r19, Y+1	; 0x01
    122e:	4a 81       	ldd	r20, Y+2	; 0x02
    1230:	5b 81       	ldd	r21, Y+3	; 0x03
    1232:	c4 58       	subi	r28, 0x84	; 132
    1234:	d0 40       	sbci	r29, 0x00	; 0
    1236:	c4 58       	subi	r28, 0x84	; 132
    1238:	df 4f       	sbci	r29, 0xFF	; 255
    123a:	28 83       	st	Y, r18
    123c:	39 83       	std	Y+1, r19	; 0x01
    123e:	4a 83       	std	Y+2, r20	; 0x02
    1240:	5b 83       	std	Y+3, r21	; 0x03
    1242:	cc 57       	subi	r28, 0x7C	; 124
    1244:	d0 40       	sbci	r29, 0x00	; 0

00001246 <.LM35>:
    1246:	8e 01       	movw	r16, r28
    1248:	03 5a       	subi	r16, 0xA3	; 163
    124a:	1f 4f       	sbci	r17, 0xFF	; 255
    124c:	c4 58       	subi	r28, 0x84	; 132
    124e:	df 4f       	sbci	r29, 0xFF	; 255
    1250:	68 81       	ld	r22, Y
    1252:	79 81       	ldd	r23, Y+1	; 0x01
    1254:	8a 81       	ldd	r24, Y+2	; 0x02
    1256:	9b 81       	ldd	r25, Y+3	; 0x03
    1258:	cc 57       	subi	r28, 0x7C	; 124
    125a:	d0 40       	sbci	r29, 0x00	; 0
    125c:	0e 94 40 17 	call	0x2e80	; 0x2e80 <__fixunssfsi>
    1260:	c8 57       	subi	r28, 0x78	; 120
    1262:	df 4f       	sbci	r29, 0xFF	; 255
    1264:	68 83       	st	Y, r22
    1266:	79 83       	std	Y+1, r23	; 0x01
    1268:	8a 83       	std	Y+2, r24	; 0x02
    126a:	9b 83       	std	Y+3, r25	; 0x03
    126c:	c8 58       	subi	r28, 0x88	; 136
    126e:	d0 40       	sbci	r29, 0x00	; 0
    1270:	c8 57       	subi	r28, 0x78	; 120
    1272:	df 4f       	sbci	r29, 0xFF	; 255
    1274:	e8 81       	ld	r30, Y
    1276:	f9 81       	ldd	r31, Y+1	; 0x01
    1278:	c8 58       	subi	r28, 0x88	; 136
    127a:	d0 40       	sbci	r29, 0x00	; 0
    127c:	d8 01       	movw	r26, r16
    127e:	ed 93       	st	X+, r30
    1280:	fc 93       	st	X, r31

00001282 <.LM36>:
    1282:	25 c0       	rjmp	.+74     	; 0x12ce <.L20>

00001284 <.L21>:
    1284:	ce 01       	movw	r24, r28
    1286:	81 5a       	subi	r24, 0xA1	; 161
    1288:	9f 4f       	sbci	r25, 0xFF	; 255
    128a:	20 e9       	ldi	r18, 0x90	; 144
    128c:	31 e0       	ldi	r19, 0x01	; 1
    128e:	dc 01       	movw	r26, r24
    1290:	2d 93       	st	X+, r18
    1292:	3c 93       	st	X, r19

00001294 <.LM37>:
    1294:	ce 01       	movw	r24, r28
    1296:	81 5a       	subi	r24, 0xA1	; 161
    1298:	9f 4f       	sbci	r25, 0xFF	; 255
    129a:	fc 01       	movw	r30, r24
    129c:	80 81       	ld	r24, Z
    129e:	91 81       	ldd	r25, Z+1	; 0x01

000012a0 <.L1^B3>:
    12a0:	01 97       	sbiw	r24, 0x01	; 1
    12a2:	f1 f7       	brne	.-4      	; 0x12a0 <.L1^B3>
    12a4:	9e 01       	movw	r18, r28
    12a6:	21 5a       	subi	r18, 0xA1	; 161
    12a8:	3f 4f       	sbci	r19, 0xFF	; 255
    12aa:	d9 01       	movw	r26, r18
    12ac:	8d 93       	st	X+, r24
    12ae:	9c 93       	st	X, r25

000012b0 <.LM38>:
	...

000012b2 <.LM39>:
    12b2:	ce 01       	movw	r24, r28
    12b4:	83 5a       	subi	r24, 0xA3	; 163
    12b6:	9f 4f       	sbci	r25, 0xFF	; 255
    12b8:	9e 01       	movw	r18, r28
    12ba:	23 5a       	subi	r18, 0xA3	; 163
    12bc:	3f 4f       	sbci	r19, 0xFF	; 255
    12be:	f9 01       	movw	r30, r18
    12c0:	20 81       	ld	r18, Z
    12c2:	31 81       	ldd	r19, Z+1	; 0x01
    12c4:	21 50       	subi	r18, 0x01	; 1
    12c6:	31 09       	sbc	r19, r1
    12c8:	dc 01       	movw	r26, r24
    12ca:	2d 93       	st	X+, r18
    12cc:	3c 93       	st	X, r19

000012ce <.L20>:
    12ce:	ce 01       	movw	r24, r28
    12d0:	83 5a       	subi	r24, 0xA3	; 163
    12d2:	9f 4f       	sbci	r25, 0xFF	; 255
    12d4:	fc 01       	movw	r30, r24
    12d6:	80 81       	ld	r24, Z
    12d8:	91 81       	ldd	r25, Z+1	; 0x01
    12da:	89 2b       	or	r24, r25
    12dc:	99 f6       	brne	.-90     	; 0x1284 <.L21>

000012de <.LM41>:
    12de:	39 c0       	rjmp	.+114    	; 0x1352 <.L22>

000012e0 <.L86>:
    12e0:	8e 01       	movw	r16, r28
    12e2:	03 5a       	subi	r16, 0xA3	; 163
    12e4:	1f 4f       	sbci	r17, 0xFF	; 255
    12e6:	ce 01       	movw	r24, r28
    12e8:	87 5a       	subi	r24, 0xA7	; 167
    12ea:	9f 4f       	sbci	r25, 0xFF	; 255
    12ec:	dc 01       	movw	r26, r24
    12ee:	6d 91       	ld	r22, X+
    12f0:	7d 91       	ld	r23, X+
    12f2:	8d 91       	ld	r24, X+
    12f4:	9c 91       	ld	r25, X
    12f6:	0e 94 40 17 	call	0x2e80	; 0x2e80 <__fixunssfsi>
    12fa:	c4 57       	subi	r28, 0x74	; 116
    12fc:	df 4f       	sbci	r29, 0xFF	; 255
    12fe:	68 83       	st	Y, r22
    1300:	79 83       	std	Y+1, r23	; 0x01
    1302:	8a 83       	std	Y+2, r24	; 0x02
    1304:	9b 83       	std	Y+3, r25	; 0x03
    1306:	cc 58       	subi	r28, 0x8C	; 140
    1308:	d0 40       	sbci	r29, 0x00	; 0
    130a:	c4 57       	subi	r28, 0x74	; 116
    130c:	df 4f       	sbci	r29, 0xFF	; 255
    130e:	28 81       	ld	r18, Y
    1310:	39 81       	ldd	r19, Y+1	; 0x01
    1312:	cc 58       	subi	r28, 0x8C	; 140
    1314:	d0 40       	sbci	r29, 0x00	; 0
    1316:	f8 01       	movw	r30, r16
    1318:	31 83       	std	Z+1, r19	; 0x01
    131a:	20 83       	st	Z, r18

0000131c <.L17>:
    131c:	ce 01       	movw	r24, r28
    131e:	8f 59       	subi	r24, 0x9F	; 159
    1320:	9f 4f       	sbci	r25, 0xFF	; 255
    1322:	9e 01       	movw	r18, r28
    1324:	23 5a       	subi	r18, 0xA3	; 163
    1326:	3f 4f       	sbci	r19, 0xFF	; 255
    1328:	d9 01       	movw	r26, r18
    132a:	2d 91       	ld	r18, X+
    132c:	3c 91       	ld	r19, X
    132e:	fc 01       	movw	r30, r24
    1330:	31 83       	std	Z+1, r19	; 0x01
    1332:	20 83       	st	Z, r18

00001334 <.LM43>:
    1334:	ce 01       	movw	r24, r28
    1336:	8f 59       	subi	r24, 0x9F	; 159
    1338:	9f 4f       	sbci	r25, 0xFF	; 255
    133a:	dc 01       	movw	r26, r24
    133c:	8d 91       	ld	r24, X+
    133e:	9c 91       	ld	r25, X

00001340 <.L1^B4>:
    1340:	01 97       	sbiw	r24, 0x01	; 1
    1342:	f1 f7       	brne	.-4      	; 0x1340 <.L1^B4>
    1344:	9e 01       	movw	r18, r28
    1346:	2f 59       	subi	r18, 0x9F	; 159
    1348:	3f 4f       	sbci	r19, 0xFF	; 255
    134a:	f9 01       	movw	r30, r18
    134c:	91 83       	std	Z+1, r25	; 0x01
    134e:	80 83       	st	Z, r24

00001350 <.LM44>:
	...

00001352 <.L22>:
    1352:	41 e0       	ldi	r20, 0x01	; 1
    1354:	62 e0       	ldi	r22, 0x02	; 2
    1356:	80 e0       	ldi	r24, 0x00	; 0
    1358:	0e 94 86 04 	call	0x90c	; 0x90c <GPIO_writePin>
    135c:	9e 01       	movw	r18, r28
    135e:	29 5b       	subi	r18, 0xB9	; 185
    1360:	3f 4f       	sbci	r19, 0xFF	; 255
    1362:	80 e0       	ldi	r24, 0x00	; 0
    1364:	90 e0       	ldi	r25, 0x00	; 0
    1366:	a0 e8       	ldi	r26, 0x80	; 128
    1368:	bf e3       	ldi	r27, 0x3F	; 63
    136a:	f9 01       	movw	r30, r18
    136c:	80 83       	st	Z, r24
    136e:	91 83       	std	Z+1, r25	; 0x01
    1370:	a2 83       	std	Z+2, r26	; 0x02
    1372:	b3 83       	std	Z+3, r27	; 0x03

00001374 <.LM46>:
    1374:	8e 01       	movw	r16, r28
    1376:	05 5b       	subi	r16, 0xB5	; 181
    1378:	1f 4f       	sbci	r17, 0xFF	; 255
    137a:	ce 01       	movw	r24, r28
    137c:	89 5b       	subi	r24, 0xB9	; 185
    137e:	9f 4f       	sbci	r25, 0xFF	; 255
    1380:	20 e0       	ldi	r18, 0x00	; 0
    1382:	30 e0       	ldi	r19, 0x00	; 0
    1384:	4a e7       	ldi	r20, 0x7A	; 122
    1386:	55 e4       	ldi	r21, 0x45	; 69
    1388:	dc 01       	movw	r26, r24
    138a:	6d 91       	ld	r22, X+
    138c:	7d 91       	ld	r23, X+
    138e:	8d 91       	ld	r24, X+
    1390:	9c 91       	ld	r25, X
    1392:	0e 94 26 18 	call	0x304c	; 0x304c <__mulsf3>
    1396:	c0 57       	subi	r28, 0x70	; 112
    1398:	df 4f       	sbci	r29, 0xFF	; 255
    139a:	68 83       	st	Y, r22
    139c:	79 83       	std	Y+1, r23	; 0x01
    139e:	8a 83       	std	Y+2, r24	; 0x02
    13a0:	9b 83       	std	Y+3, r25	; 0x03
    13a2:	c0 59       	subi	r28, 0x90	; 144
    13a4:	d0 40       	sbci	r29, 0x00	; 0
    13a6:	c0 57       	subi	r28, 0x70	; 112
    13a8:	df 4f       	sbci	r29, 0xFF	; 255
    13aa:	28 81       	ld	r18, Y
    13ac:	39 81       	ldd	r19, Y+1	; 0x01
    13ae:	4a 81       	ldd	r20, Y+2	; 0x02
    13b0:	5b 81       	ldd	r21, Y+3	; 0x03
    13b2:	c0 59       	subi	r28, 0x90	; 144
    13b4:	d0 40       	sbci	r29, 0x00	; 0
    13b6:	d8 01       	movw	r26, r16
    13b8:	2d 93       	st	X+, r18
    13ba:	3d 93       	st	X+, r19
    13bc:	4d 93       	st	X+, r20
    13be:	5c 93       	st	X, r21
    13c0:	13 97       	sbiw	r26, 0x03	; 3

000013c2 <.LM47>:
    13c2:	ce 01       	movw	r24, r28
    13c4:	85 5b       	subi	r24, 0xB5	; 181
    13c6:	9f 4f       	sbci	r25, 0xFF	; 255
    13c8:	20 e0       	ldi	r18, 0x00	; 0
    13ca:	30 e0       	ldi	r19, 0x00	; 0
    13cc:	40 e8       	ldi	r20, 0x80	; 128
    13ce:	5f e3       	ldi	r21, 0x3F	; 63
    13d0:	fc 01       	movw	r30, r24
    13d2:	60 81       	ld	r22, Z
    13d4:	71 81       	ldd	r23, Z+1	; 0x01
    13d6:	82 81       	ldd	r24, Z+2	; 0x02
    13d8:	93 81       	ldd	r25, Z+3	; 0x03
    13da:	0e 94 c9 16 	call	0x2d92	; 0x2d92 <__cmpsf2>
    13de:	88 23       	and	r24, r24
    13e0:	4c f4       	brge	.+18     	; 0x13f4 <.L87>

000013e2 <.LM48>:
    13e2:	ce 01       	movw	r24, r28
    13e4:	81 5b       	subi	r24, 0xB1	; 177
    13e6:	9f 4f       	sbci	r25, 0xFF	; 255
    13e8:	21 e0       	ldi	r18, 0x01	; 1
    13ea:	30 e0       	ldi	r19, 0x00	; 0
    13ec:	dc 01       	movw	r26, r24
    13ee:	2d 93       	st	X+, r18
    13f0:	3c 93       	st	X, r19
    13f2:	9e c0       	rjmp	.+316    	; 0x1530 <.L25>

000013f4 <.L87>:
    13f4:	ce 01       	movw	r24, r28
    13f6:	85 5b       	subi	r24, 0xB5	; 181
    13f8:	9f 4f       	sbci	r25, 0xFF	; 255
    13fa:	20 e0       	ldi	r18, 0x00	; 0
    13fc:	3f ef       	ldi	r19, 0xFF	; 255
    13fe:	4f e7       	ldi	r20, 0x7F	; 127
    1400:	57 e4       	ldi	r21, 0x47	; 71
    1402:	fc 01       	movw	r30, r24
    1404:	60 81       	ld	r22, Z
    1406:	71 81       	ldd	r23, Z+1	; 0x01
    1408:	82 81       	ldd	r24, Z+2	; 0x02
    140a:	93 81       	ldd	r25, Z+3	; 0x03
    140c:	0e 94 21 18 	call	0x3042	; 0x3042 <__gesf2>
    1410:	18 16       	cp	r1, r24
    1412:	0c f0       	brlt	.+2      	; 0x1416 <.LM50>

00001414 <L0^A>:
    1414:	6f c0       	rjmp	.+222    	; 0x14f4 <.L88>

00001416 <.LM50>:
    1416:	ce 01       	movw	r24, r28
    1418:	89 5b       	subi	r24, 0xB9	; 185
    141a:	9f 4f       	sbci	r25, 0xFF	; 255
    141c:	20 e0       	ldi	r18, 0x00	; 0
    141e:	30 e0       	ldi	r19, 0x00	; 0
    1420:	40 e2       	ldi	r20, 0x20	; 32
    1422:	51 e4       	ldi	r21, 0x41	; 65
    1424:	dc 01       	movw	r26, r24
    1426:	6d 91       	ld	r22, X+
    1428:	7d 91       	ld	r23, X+
    142a:	8d 91       	ld	r24, X+
    142c:	9c 91       	ld	r25, X
    142e:	0e 94 26 18 	call	0x304c	; 0x304c <__mulsf3>
    1432:	cc 56       	subi	r28, 0x6C	; 108
    1434:	df 4f       	sbci	r29, 0xFF	; 255
    1436:	68 83       	st	Y, r22
    1438:	79 83       	std	Y+1, r23	; 0x01
    143a:	8a 83       	std	Y+2, r24	; 0x02
    143c:	9b 83       	std	Y+3, r25	; 0x03
    143e:	c4 59       	subi	r28, 0x94	; 148
    1440:	d0 40       	sbci	r29, 0x00	; 0
    1442:	cc 56       	subi	r28, 0x6C	; 108
    1444:	df 4f       	sbci	r29, 0xFF	; 255
    1446:	28 81       	ld	r18, Y
    1448:	39 81       	ldd	r19, Y+1	; 0x01
    144a:	4a 81       	ldd	r20, Y+2	; 0x02
    144c:	5b 81       	ldd	r21, Y+3	; 0x03
    144e:	c4 59       	subi	r28, 0x94	; 148
    1450:	d0 40       	sbci	r29, 0x00	; 0
    1452:	ec 96       	adiw	r28, 0x3c	; 60
    1454:	2c af       	std	Y+60, r18	; 0x3c
    1456:	3d af       	std	Y+61, r19	; 0x3d
    1458:	4e af       	std	Y+62, r20	; 0x3e
    145a:	5f af       	std	Y+63, r21	; 0x3f
    145c:	ec 97       	sbiw	r28, 0x3c	; 60

0000145e <.LM51>:
    145e:	8e 01       	movw	r16, r28
    1460:	01 5b       	subi	r16, 0xB1	; 177
    1462:	1f 4f       	sbci	r17, 0xFF	; 255
    1464:	ec 96       	adiw	r28, 0x3c	; 60
    1466:	6c ad       	ldd	r22, Y+60	; 0x3c
    1468:	7d ad       	ldd	r23, Y+61	; 0x3d
    146a:	8e ad       	ldd	r24, Y+62	; 0x3e
    146c:	9f ad       	ldd	r25, Y+63	; 0x3f
    146e:	ec 97       	sbiw	r28, 0x3c	; 60
    1470:	0e 94 40 17 	call	0x2e80	; 0x2e80 <__fixunssfsi>
    1474:	c8 56       	subi	r28, 0x68	; 104
    1476:	df 4f       	sbci	r29, 0xFF	; 255
    1478:	68 83       	st	Y, r22
    147a:	79 83       	std	Y+1, r23	; 0x01
    147c:	8a 83       	std	Y+2, r24	; 0x02
    147e:	9b 83       	std	Y+3, r25	; 0x03
    1480:	c8 59       	subi	r28, 0x98	; 152
    1482:	d0 40       	sbci	r29, 0x00	; 0
    1484:	c8 56       	subi	r28, 0x68	; 104
    1486:	df 4f       	sbci	r29, 0xFF	; 255
    1488:	e8 81       	ld	r30, Y
    148a:	f9 81       	ldd	r31, Y+1	; 0x01
    148c:	c8 59       	subi	r28, 0x98	; 152
    148e:	d0 40       	sbci	r29, 0x00	; 0
    1490:	d8 01       	movw	r26, r16
    1492:	ed 93       	st	X+, r30
    1494:	fc 93       	st	X, r31

00001496 <.LM52>:
    1496:	25 c0       	rjmp	.+74     	; 0x14e2 <.L28>

00001498 <.L29>:
    1498:	ce 01       	movw	r24, r28
    149a:	8f 5a       	subi	r24, 0xAF	; 175
    149c:	9f 4f       	sbci	r25, 0xFF	; 255
    149e:	20 e9       	ldi	r18, 0x90	; 144
    14a0:	31 e0       	ldi	r19, 0x01	; 1
    14a2:	dc 01       	movw	r26, r24
    14a4:	2d 93       	st	X+, r18
    14a6:	3c 93       	st	X, r19

000014a8 <.LM53>:
    14a8:	ce 01       	movw	r24, r28
    14aa:	8f 5a       	subi	r24, 0xAF	; 175
    14ac:	9f 4f       	sbci	r25, 0xFF	; 255
    14ae:	fc 01       	movw	r30, r24
    14b0:	80 81       	ld	r24, Z
    14b2:	91 81       	ldd	r25, Z+1	; 0x01

000014b4 <.L1^B5>:
    14b4:	01 97       	sbiw	r24, 0x01	; 1
    14b6:	f1 f7       	brne	.-4      	; 0x14b4 <.L1^B5>
    14b8:	9e 01       	movw	r18, r28
    14ba:	2f 5a       	subi	r18, 0xAF	; 175
    14bc:	3f 4f       	sbci	r19, 0xFF	; 255
    14be:	d9 01       	movw	r26, r18
    14c0:	8d 93       	st	X+, r24
    14c2:	9c 93       	st	X, r25

000014c4 <.LM54>:
	...

000014c6 <.LM55>:
    14c6:	ce 01       	movw	r24, r28
    14c8:	81 5b       	subi	r24, 0xB1	; 177
    14ca:	9f 4f       	sbci	r25, 0xFF	; 255
    14cc:	9e 01       	movw	r18, r28
    14ce:	21 5b       	subi	r18, 0xB1	; 177
    14d0:	3f 4f       	sbci	r19, 0xFF	; 255
    14d2:	f9 01       	movw	r30, r18
    14d4:	20 81       	ld	r18, Z
    14d6:	31 81       	ldd	r19, Z+1	; 0x01
    14d8:	21 50       	subi	r18, 0x01	; 1
    14da:	31 09       	sbc	r19, r1
    14dc:	dc 01       	movw	r26, r24
    14de:	2d 93       	st	X+, r18
    14e0:	3c 93       	st	X, r19

000014e2 <.L28>:
    14e2:	ce 01       	movw	r24, r28
    14e4:	81 5b       	subi	r24, 0xB1	; 177
    14e6:	9f 4f       	sbci	r25, 0xFF	; 255
    14e8:	fc 01       	movw	r30, r24
    14ea:	80 81       	ld	r24, Z
    14ec:	91 81       	ldd	r25, Z+1	; 0x01
    14ee:	89 2b       	or	r24, r25
    14f0:	99 f6       	brne	.-90     	; 0x1498 <.L29>

000014f2 <.LM57>:
    14f2:	39 c0       	rjmp	.+114    	; 0x1566 <.L30>

000014f4 <.L88>:
    14f4:	8e 01       	movw	r16, r28
    14f6:	01 5b       	subi	r16, 0xB1	; 177
    14f8:	1f 4f       	sbci	r17, 0xFF	; 255
    14fa:	ce 01       	movw	r24, r28
    14fc:	85 5b       	subi	r24, 0xB5	; 181
    14fe:	9f 4f       	sbci	r25, 0xFF	; 255
    1500:	dc 01       	movw	r26, r24
    1502:	6d 91       	ld	r22, X+
    1504:	7d 91       	ld	r23, X+
    1506:	8d 91       	ld	r24, X+
    1508:	9c 91       	ld	r25, X
    150a:	0e 94 40 17 	call	0x2e80	; 0x2e80 <__fixunssfsi>
    150e:	c4 56       	subi	r28, 0x64	; 100
    1510:	df 4f       	sbci	r29, 0xFF	; 255
    1512:	68 83       	st	Y, r22
    1514:	79 83       	std	Y+1, r23	; 0x01
    1516:	8a 83       	std	Y+2, r24	; 0x02
    1518:	9b 83       	std	Y+3, r25	; 0x03
    151a:	cc 59       	subi	r28, 0x9C	; 156
    151c:	d0 40       	sbci	r29, 0x00	; 0
    151e:	c4 56       	subi	r28, 0x64	; 100
    1520:	df 4f       	sbci	r29, 0xFF	; 255
    1522:	28 81       	ld	r18, Y
    1524:	39 81       	ldd	r19, Y+1	; 0x01
    1526:	cc 59       	subi	r28, 0x9C	; 156
    1528:	d0 40       	sbci	r29, 0x00	; 0
    152a:	f8 01       	movw	r30, r16
    152c:	31 83       	std	Z+1, r19	; 0x01
    152e:	20 83       	st	Z, r18

00001530 <.L25>:
    1530:	ce 01       	movw	r24, r28
    1532:	8d 5a       	subi	r24, 0xAD	; 173
    1534:	9f 4f       	sbci	r25, 0xFF	; 255
    1536:	9e 01       	movw	r18, r28
    1538:	21 5b       	subi	r18, 0xB1	; 177
    153a:	3f 4f       	sbci	r19, 0xFF	; 255
    153c:	d9 01       	movw	r26, r18
    153e:	2d 91       	ld	r18, X+
    1540:	3c 91       	ld	r19, X
    1542:	fc 01       	movw	r30, r24
    1544:	31 83       	std	Z+1, r19	; 0x01
    1546:	20 83       	st	Z, r18

00001548 <.LM59>:
    1548:	ce 01       	movw	r24, r28
    154a:	8d 5a       	subi	r24, 0xAD	; 173
    154c:	9f 4f       	sbci	r25, 0xFF	; 255
    154e:	dc 01       	movw	r26, r24
    1550:	8d 91       	ld	r24, X+
    1552:	9c 91       	ld	r25, X

00001554 <.L1^B6>:
    1554:	01 97       	sbiw	r24, 0x01	; 1
    1556:	f1 f7       	brne	.-4      	; 0x1554 <.L1^B6>
    1558:	9e 01       	movw	r18, r28
    155a:	2d 5a       	subi	r18, 0xAD	; 173
    155c:	3f 4f       	sbci	r19, 0xFF	; 255
    155e:	f9 01       	movw	r30, r18
    1560:	91 83       	std	Z+1, r25	; 0x01
    1562:	80 83       	st	Z, r24

00001564 <.LM60>:
	...

00001566 <.L30>:
    1566:	ce 01       	movw	r24, r28
    1568:	8d 59       	subi	r24, 0x9D	; 157
    156a:	9f 4f       	sbci	r25, 0xFF	; 255
    156c:	dc 01       	movw	r26, r24
    156e:	8c 91       	ld	r24, X
    1570:	88 2f       	mov	r24, r24
    1572:	90 e0       	ldi	r25, 0x00	; 0
    1574:	95 95       	asr	r25
    1576:	87 95       	ror	r24
    1578:	95 95       	asr	r25
    157a:	87 95       	ror	r24
    157c:	95 95       	asr	r25
    157e:	87 95       	ror	r24
    1580:	95 95       	asr	r25
    1582:	87 95       	ror	r24

00001584 <.LM62>:
    1584:	81 70       	andi	r24, 0x01	; 1
    1586:	48 2f       	mov	r20, r24
    1588:	63 e0       	ldi	r22, 0x03	; 3
    158a:	80 e0       	ldi	r24, 0x00	; 0
    158c:	0e 94 86 04 	call	0x90c	; 0x90c <GPIO_writePin>

00001590 <.LM63>:
    1590:	ce 01       	movw	r24, r28
    1592:	8d 59       	subi	r24, 0x9D	; 157
    1594:	9f 4f       	sbci	r25, 0xFF	; 255
    1596:	fc 01       	movw	r30, r24
    1598:	80 81       	ld	r24, Z
    159a:	88 2f       	mov	r24, r24
    159c:	90 e0       	ldi	r25, 0x00	; 0
    159e:	95 95       	asr	r25
    15a0:	87 95       	ror	r24
    15a2:	95 95       	asr	r25
    15a4:	87 95       	ror	r24
    15a6:	95 95       	asr	r25
    15a8:	87 95       	ror	r24
    15aa:	95 95       	asr	r25
    15ac:	87 95       	ror	r24
    15ae:	95 95       	asr	r25
    15b0:	87 95       	ror	r24

000015b2 <.LM64>:
    15b2:	81 70       	andi	r24, 0x01	; 1
    15b4:	48 2f       	mov	r20, r24
    15b6:	64 e0       	ldi	r22, 0x04	; 4
    15b8:	80 e0       	ldi	r24, 0x00	; 0
    15ba:	0e 94 86 04 	call	0x90c	; 0x90c <GPIO_writePin>

000015be <.LM65>:
    15be:	ce 01       	movw	r24, r28
    15c0:	8d 59       	subi	r24, 0x9D	; 157
    15c2:	9f 4f       	sbci	r25, 0xFF	; 255
    15c4:	dc 01       	movw	r26, r24
    15c6:	8c 91       	ld	r24, X
    15c8:	88 2f       	mov	r24, r24
    15ca:	90 e0       	ldi	r25, 0x00	; 0
    15cc:	08 2e       	mov	r0, r24
    15ce:	89 2f       	mov	r24, r25
    15d0:	00 0c       	add	r0, r0
    15d2:	88 1f       	adc	r24, r24
    15d4:	99 0b       	sbc	r25, r25
    15d6:	00 0c       	add	r0, r0
    15d8:	88 1f       	adc	r24, r24
    15da:	99 1f       	adc	r25, r25

000015dc <.LM66>:
    15dc:	81 70       	andi	r24, 0x01	; 1
    15de:	48 2f       	mov	r20, r24
    15e0:	65 e0       	ldi	r22, 0x05	; 5
    15e2:	80 e0       	ldi	r24, 0x00	; 0
    15e4:	0e 94 86 04 	call	0x90c	; 0x90c <GPIO_writePin>

000015e8 <.LM67>:
    15e8:	ce 01       	movw	r24, r28
    15ea:	8d 59       	subi	r24, 0x9D	; 157
    15ec:	9f 4f       	sbci	r25, 0xFF	; 255
    15ee:	fc 01       	movw	r30, r24
    15f0:	80 81       	ld	r24, Z
    15f2:	88 1f       	adc	r24, r24
    15f4:	88 27       	eor	r24, r24
    15f6:	88 1f       	adc	r24, r24
    15f8:	48 2f       	mov	r20, r24
    15fa:	66 e0       	ldi	r22, 0x06	; 6
    15fc:	80 e0       	ldi	r24, 0x00	; 0
    15fe:	0e 94 86 04 	call	0x90c	; 0x90c <GPIO_writePin>
    1602:	80 e0       	ldi	r24, 0x00	; 0
    1604:	90 e0       	ldi	r25, 0x00	; 0
    1606:	a0 e8       	ldi	r26, 0x80	; 128
    1608:	bf e3       	ldi	r27, 0x3F	; 63
    160a:	89 af       	std	Y+57, r24	; 0x39
    160c:	9a af       	std	Y+58, r25	; 0x3a
    160e:	ab af       	std	Y+59, r26	; 0x3b
    1610:	bc af       	std	Y+60, r27	; 0x3c

00001612 <.LM68>:
    1612:	20 e0       	ldi	r18, 0x00	; 0
    1614:	30 e0       	ldi	r19, 0x00	; 0
    1616:	4a e7       	ldi	r20, 0x7A	; 122
    1618:	55 e4       	ldi	r21, 0x45	; 69
    161a:	69 ad       	ldd	r22, Y+57	; 0x39
    161c:	7a ad       	ldd	r23, Y+58	; 0x3a
    161e:	8b ad       	ldd	r24, Y+59	; 0x3b
    1620:	9c ad       	ldd	r25, Y+60	; 0x3c
    1622:	0e 94 26 18 	call	0x304c	; 0x304c <__mulsf3>
    1626:	c0 56       	subi	r28, 0x60	; 96
    1628:	df 4f       	sbci	r29, 0xFF	; 255
    162a:	68 83       	st	Y, r22
    162c:	79 83       	std	Y+1, r23	; 0x01
    162e:	8a 83       	std	Y+2, r24	; 0x02
    1630:	9b 83       	std	Y+3, r25	; 0x03
    1632:	c0 5a       	subi	r28, 0xA0	; 160
    1634:	d0 40       	sbci	r29, 0x00	; 0
    1636:	ce 01       	movw	r24, r28
    1638:	cd 96       	adiw	r24, 0x3d	; 61
    163a:	c0 56       	subi	r28, 0x60	; 96
    163c:	df 4f       	sbci	r29, 0xFF	; 255
    163e:	28 81       	ld	r18, Y
    1640:	39 81       	ldd	r19, Y+1	; 0x01
    1642:	4a 81       	ldd	r20, Y+2	; 0x02
    1644:	5b 81       	ldd	r21, Y+3	; 0x03
    1646:	c0 5a       	subi	r28, 0xA0	; 160
    1648:	d0 40       	sbci	r29, 0x00	; 0
    164a:	dc 01       	movw	r26, r24
    164c:	2d 93       	st	X+, r18
    164e:	3d 93       	st	X+, r19
    1650:	4d 93       	st	X+, r20
    1652:	5c 93       	st	X, r21
    1654:	13 97       	sbiw	r26, 0x03	; 3

00001656 <.LM69>:
    1656:	20 e0       	ldi	r18, 0x00	; 0
    1658:	30 e0       	ldi	r19, 0x00	; 0
    165a:	40 e8       	ldi	r20, 0x80	; 128
    165c:	5f e3       	ldi	r21, 0x3F	; 63
    165e:	ce 01       	movw	r24, r28
    1660:	cd 96       	adiw	r24, 0x3d	; 61
    1662:	fc 01       	movw	r30, r24
    1664:	60 81       	ld	r22, Z
    1666:	71 81       	ldd	r23, Z+1	; 0x01
    1668:	82 81       	ldd	r24, Z+2	; 0x02
    166a:	93 81       	ldd	r25, Z+3	; 0x03
    166c:	0e 94 c9 16 	call	0x2d92	; 0x2d92 <__cmpsf2>
    1670:	88 23       	and	r24, r24
    1672:	4c f4       	brge	.+18     	; 0x1686 <.L89>

00001674 <.LM70>:
    1674:	ce 01       	movw	r24, r28
    1676:	8f 5b       	subi	r24, 0xBF	; 191
    1678:	9f 4f       	sbci	r25, 0xFF	; 255
    167a:	21 e0       	ldi	r18, 0x01	; 1
    167c:	30 e0       	ldi	r19, 0x00	; 0
    167e:	dc 01       	movw	r26, r24
    1680:	2d 93       	st	X+, r18
    1682:	3c 93       	st	X, r19
    1684:	98 c0       	rjmp	.+304    	; 0x17b6 <.L33>

00001686 <.L89>:
    1686:	20 e0       	ldi	r18, 0x00	; 0
    1688:	3f ef       	ldi	r19, 0xFF	; 255
    168a:	4f e7       	ldi	r20, 0x7F	; 127
    168c:	57 e4       	ldi	r21, 0x47	; 71
    168e:	ce 01       	movw	r24, r28
    1690:	cd 96       	adiw	r24, 0x3d	; 61
    1692:	fc 01       	movw	r30, r24
    1694:	60 81       	ld	r22, Z
    1696:	71 81       	ldd	r23, Z+1	; 0x01
    1698:	82 81       	ldd	r24, Z+2	; 0x02
    169a:	93 81       	ldd	r25, Z+3	; 0x03
    169c:	0e 94 21 18 	call	0x3042	; 0x3042 <__gesf2>
    16a0:	18 16       	cp	r1, r24
    16a2:	0c f0       	brlt	.+2      	; 0x16a6 <.LM72>

000016a4 <L0^A>:
    16a4:	6b c0       	rjmp	.+214    	; 0x177c <.L90>

000016a6 <.LM72>:
    16a6:	20 e0       	ldi	r18, 0x00	; 0
    16a8:	30 e0       	ldi	r19, 0x00	; 0
    16aa:	40 e2       	ldi	r20, 0x20	; 32
    16ac:	51 e4       	ldi	r21, 0x41	; 65
    16ae:	69 ad       	ldd	r22, Y+57	; 0x39
    16b0:	7a ad       	ldd	r23, Y+58	; 0x3a
    16b2:	8b ad       	ldd	r24, Y+59	; 0x3b
    16b4:	9c ad       	ldd	r25, Y+60	; 0x3c
    16b6:	0e 94 26 18 	call	0x304c	; 0x304c <__mulsf3>
    16ba:	cc 55       	subi	r28, 0x5C	; 92
    16bc:	df 4f       	sbci	r29, 0xFF	; 255
    16be:	68 83       	st	Y, r22
    16c0:	79 83       	std	Y+1, r23	; 0x01
    16c2:	8a 83       	std	Y+2, r24	; 0x02
    16c4:	9b 83       	std	Y+3, r25	; 0x03
    16c6:	c4 5a       	subi	r28, 0xA4	; 164
    16c8:	d0 40       	sbci	r29, 0x00	; 0
    16ca:	cc 55       	subi	r28, 0x5C	; 92
    16cc:	df 4f       	sbci	r29, 0xFF	; 255
    16ce:	28 81       	ld	r18, Y
    16d0:	39 81       	ldd	r19, Y+1	; 0x01
    16d2:	4a 81       	ldd	r20, Y+2	; 0x02
    16d4:	5b 81       	ldd	r21, Y+3	; 0x03
    16d6:	c4 5a       	subi	r28, 0xA4	; 164
    16d8:	d0 40       	sbci	r29, 0x00	; 0
    16da:	e8 96       	adiw	r28, 0x38	; 56
    16dc:	2c af       	std	Y+60, r18	; 0x3c
    16de:	3d af       	std	Y+61, r19	; 0x3d
    16e0:	4e af       	std	Y+62, r20	; 0x3e
    16e2:	5f af       	std	Y+63, r21	; 0x3f
    16e4:	e8 97       	sbiw	r28, 0x38	; 56

000016e6 <.LM73>:
    16e6:	8e 01       	movw	r16, r28
    16e8:	0f 5b       	subi	r16, 0xBF	; 191
    16ea:	1f 4f       	sbci	r17, 0xFF	; 255
    16ec:	e8 96       	adiw	r28, 0x38	; 56
    16ee:	6c ad       	ldd	r22, Y+60	; 0x3c
    16f0:	7d ad       	ldd	r23, Y+61	; 0x3d
    16f2:	8e ad       	ldd	r24, Y+62	; 0x3e
    16f4:	9f ad       	ldd	r25, Y+63	; 0x3f
    16f6:	e8 97       	sbiw	r28, 0x38	; 56
    16f8:	0e 94 40 17 	call	0x2e80	; 0x2e80 <__fixunssfsi>
    16fc:	c8 55       	subi	r28, 0x58	; 88
    16fe:	df 4f       	sbci	r29, 0xFF	; 255
    1700:	68 83       	st	Y, r22
    1702:	79 83       	std	Y+1, r23	; 0x01
    1704:	8a 83       	std	Y+2, r24	; 0x02
    1706:	9b 83       	std	Y+3, r25	; 0x03
    1708:	c8 5a       	subi	r28, 0xA8	; 168
    170a:	d0 40       	sbci	r29, 0x00	; 0
    170c:	c8 55       	subi	r28, 0x58	; 88
    170e:	df 4f       	sbci	r29, 0xFF	; 255
    1710:	e8 81       	ld	r30, Y
    1712:	f9 81       	ldd	r31, Y+1	; 0x01
    1714:	c8 5a       	subi	r28, 0xA8	; 168
    1716:	d0 40       	sbci	r29, 0x00	; 0
    1718:	d8 01       	movw	r26, r16
    171a:	ed 93       	st	X+, r30
    171c:	fc 93       	st	X, r31

0000171e <.LM74>:
    171e:	25 c0       	rjmp	.+74     	; 0x176a <.L36>

00001720 <.L37>:
    1720:	ce 01       	movw	r24, r28
    1722:	8d 5b       	subi	r24, 0xBD	; 189
    1724:	9f 4f       	sbci	r25, 0xFF	; 255
    1726:	20 e9       	ldi	r18, 0x90	; 144
    1728:	31 e0       	ldi	r19, 0x01	; 1
    172a:	dc 01       	movw	r26, r24
    172c:	2d 93       	st	X+, r18
    172e:	3c 93       	st	X, r19

00001730 <.LM75>:
    1730:	ce 01       	movw	r24, r28
    1732:	8d 5b       	subi	r24, 0xBD	; 189
    1734:	9f 4f       	sbci	r25, 0xFF	; 255
    1736:	fc 01       	movw	r30, r24
    1738:	80 81       	ld	r24, Z
    173a:	91 81       	ldd	r25, Z+1	; 0x01

0000173c <.L1^B7>:
    173c:	01 97       	sbiw	r24, 0x01	; 1
    173e:	f1 f7       	brne	.-4      	; 0x173c <.L1^B7>
    1740:	9e 01       	movw	r18, r28
    1742:	2d 5b       	subi	r18, 0xBD	; 189
    1744:	3f 4f       	sbci	r19, 0xFF	; 255
    1746:	d9 01       	movw	r26, r18
    1748:	8d 93       	st	X+, r24
    174a:	9c 93       	st	X, r25

0000174c <.LM76>:
	...

0000174e <.LM77>:
    174e:	ce 01       	movw	r24, r28
    1750:	8f 5b       	subi	r24, 0xBF	; 191
    1752:	9f 4f       	sbci	r25, 0xFF	; 255
    1754:	9e 01       	movw	r18, r28
    1756:	2f 5b       	subi	r18, 0xBF	; 191
    1758:	3f 4f       	sbci	r19, 0xFF	; 255
    175a:	f9 01       	movw	r30, r18
    175c:	20 81       	ld	r18, Z
    175e:	31 81       	ldd	r19, Z+1	; 0x01
    1760:	21 50       	subi	r18, 0x01	; 1
    1762:	31 09       	sbc	r19, r1
    1764:	dc 01       	movw	r26, r24
    1766:	2d 93       	st	X+, r18
    1768:	3c 93       	st	X, r19

0000176a <.L36>:
    176a:	ce 01       	movw	r24, r28
    176c:	8f 5b       	subi	r24, 0xBF	; 191
    176e:	9f 4f       	sbci	r25, 0xFF	; 255
    1770:	fc 01       	movw	r30, r24
    1772:	80 81       	ld	r24, Z
    1774:	91 81       	ldd	r25, Z+1	; 0x01
    1776:	89 2b       	or	r24, r25
    1778:	99 f6       	brne	.-90     	; 0x1720 <.L37>

0000177a <.LM79>:
    177a:	38 c0       	rjmp	.+112    	; 0x17ec <.L38>

0000177c <.L90>:
    177c:	8e 01       	movw	r16, r28
    177e:	0f 5b       	subi	r16, 0xBF	; 191
    1780:	1f 4f       	sbci	r17, 0xFF	; 255
    1782:	ce 01       	movw	r24, r28
    1784:	cd 96       	adiw	r24, 0x3d	; 61
    1786:	dc 01       	movw	r26, r24
    1788:	6d 91       	ld	r22, X+
    178a:	7d 91       	ld	r23, X+
    178c:	8d 91       	ld	r24, X+
    178e:	9c 91       	ld	r25, X
    1790:	0e 94 40 17 	call	0x2e80	; 0x2e80 <__fixunssfsi>
    1794:	c4 55       	subi	r28, 0x54	; 84
    1796:	df 4f       	sbci	r29, 0xFF	; 255
    1798:	68 83       	st	Y, r22
    179a:	79 83       	std	Y+1, r23	; 0x01
    179c:	8a 83       	std	Y+2, r24	; 0x02
    179e:	9b 83       	std	Y+3, r25	; 0x03
    17a0:	cc 5a       	subi	r28, 0xAC	; 172
    17a2:	d0 40       	sbci	r29, 0x00	; 0
    17a4:	c4 55       	subi	r28, 0x54	; 84
    17a6:	df 4f       	sbci	r29, 0xFF	; 255
    17a8:	28 81       	ld	r18, Y
    17aa:	39 81       	ldd	r19, Y+1	; 0x01
    17ac:	cc 5a       	subi	r28, 0xAC	; 172
    17ae:	d0 40       	sbci	r29, 0x00	; 0
    17b0:	f8 01       	movw	r30, r16
    17b2:	31 83       	std	Z+1, r19	; 0x01
    17b4:	20 83       	st	Z, r18

000017b6 <.L33>:
    17b6:	ce 01       	movw	r24, r28
    17b8:	8b 5b       	subi	r24, 0xBB	; 187
    17ba:	9f 4f       	sbci	r25, 0xFF	; 255
    17bc:	9e 01       	movw	r18, r28
    17be:	2f 5b       	subi	r18, 0xBF	; 191
    17c0:	3f 4f       	sbci	r19, 0xFF	; 255
    17c2:	d9 01       	movw	r26, r18
    17c4:	2d 91       	ld	r18, X+
    17c6:	3c 91       	ld	r19, X
    17c8:	fc 01       	movw	r30, r24
    17ca:	31 83       	std	Z+1, r19	; 0x01
    17cc:	20 83       	st	Z, r18

000017ce <.LM81>:
    17ce:	ce 01       	movw	r24, r28
    17d0:	8b 5b       	subi	r24, 0xBB	; 187
    17d2:	9f 4f       	sbci	r25, 0xFF	; 255
    17d4:	dc 01       	movw	r26, r24
    17d6:	8d 91       	ld	r24, X+
    17d8:	9c 91       	ld	r25, X

000017da <.L1^B8>:
    17da:	01 97       	sbiw	r24, 0x01	; 1
    17dc:	f1 f7       	brne	.-4      	; 0x17da <.L1^B8>
    17de:	9e 01       	movw	r18, r28
    17e0:	2b 5b       	subi	r18, 0xBB	; 187
    17e2:	3f 4f       	sbci	r19, 0xFF	; 255
    17e4:	f9 01       	movw	r30, r18
    17e6:	91 83       	std	Z+1, r25	; 0x01
    17e8:	80 83       	st	Z, r24

000017ea <.LM82>:
	...

000017ec <.L38>:
    17ec:	40 e0       	ldi	r20, 0x00	; 0
    17ee:	62 e0       	ldi	r22, 0x02	; 2
    17f0:	80 e0       	ldi	r24, 0x00	; 0
    17f2:	0e 94 86 04 	call	0x90c	; 0x90c <GPIO_writePin>
    17f6:	80 e0       	ldi	r24, 0x00	; 0
    17f8:	90 e0       	ldi	r25, 0x00	; 0
    17fa:	a0 e8       	ldi	r26, 0x80	; 128
    17fc:	bf e3       	ldi	r27, 0x3F	; 63
    17fe:	8b a7       	std	Y+43, r24	; 0x2b
    1800:	9c a7       	std	Y+44, r25	; 0x2c
    1802:	ad a7       	std	Y+45, r26	; 0x2d
    1804:	be a7       	std	Y+46, r27	; 0x2e

00001806 <.LM84>:
    1806:	20 e0       	ldi	r18, 0x00	; 0
    1808:	30 e0       	ldi	r19, 0x00	; 0
    180a:	4a e7       	ldi	r20, 0x7A	; 122
    180c:	55 e4       	ldi	r21, 0x45	; 69
    180e:	6b a5       	ldd	r22, Y+43	; 0x2b
    1810:	7c a5       	ldd	r23, Y+44	; 0x2c
    1812:	8d a5       	ldd	r24, Y+45	; 0x2d
    1814:	9e a5       	ldd	r25, Y+46	; 0x2e
    1816:	0e 94 26 18 	call	0x304c	; 0x304c <__mulsf3>
    181a:	c0 55       	subi	r28, 0x50	; 80
    181c:	df 4f       	sbci	r29, 0xFF	; 255
    181e:	68 83       	st	Y, r22
    1820:	79 83       	std	Y+1, r23	; 0x01
    1822:	8a 83       	std	Y+2, r24	; 0x02
    1824:	9b 83       	std	Y+3, r25	; 0x03
    1826:	c0 5b       	subi	r28, 0xB0	; 176
    1828:	d0 40       	sbci	r29, 0x00	; 0
    182a:	c0 55       	subi	r28, 0x50	; 80
    182c:	df 4f       	sbci	r29, 0xFF	; 255
    182e:	28 81       	ld	r18, Y
    1830:	39 81       	ldd	r19, Y+1	; 0x01
    1832:	4a 81       	ldd	r20, Y+2	; 0x02
    1834:	5b 81       	ldd	r21, Y+3	; 0x03
    1836:	c0 5b       	subi	r28, 0xB0	; 176
    1838:	d0 40       	sbci	r29, 0x00	; 0
    183a:	2f a7       	std	Y+47, r18	; 0x2f
    183c:	38 ab       	std	Y+48, r19	; 0x30
    183e:	49 ab       	std	Y+49, r20	; 0x31
    1840:	5a ab       	std	Y+50, r21	; 0x32

00001842 <.LM85>:
    1842:	20 e0       	ldi	r18, 0x00	; 0
    1844:	30 e0       	ldi	r19, 0x00	; 0
    1846:	40 e8       	ldi	r20, 0x80	; 128
    1848:	5f e3       	ldi	r21, 0x3F	; 63
    184a:	6f a5       	ldd	r22, Y+47	; 0x2f
    184c:	78 a9       	ldd	r23, Y+48	; 0x30
    184e:	89 a9       	ldd	r24, Y+49	; 0x31
    1850:	9a a9       	ldd	r25, Y+50	; 0x32
    1852:	0e 94 c9 16 	call	0x2d92	; 0x2d92 <__cmpsf2>
    1856:	88 23       	and	r24, r24
    1858:	2c f4       	brge	.+10     	; 0x1864 <.L91>

0000185a <.LM86>:
    185a:	81 e0       	ldi	r24, 0x01	; 1
    185c:	90 e0       	ldi	r25, 0x00	; 0
    185e:	9c ab       	std	Y+52, r25	; 0x34
    1860:	8b ab       	std	Y+51, r24	; 0x33
    1862:	71 c0       	rjmp	.+226    	; 0x1946 <.L41>

00001864 <.L91>:
    1864:	20 e0       	ldi	r18, 0x00	; 0
    1866:	3f ef       	ldi	r19, 0xFF	; 255
    1868:	4f e7       	ldi	r20, 0x7F	; 127
    186a:	57 e4       	ldi	r21, 0x47	; 71
    186c:	6f a5       	ldd	r22, Y+47	; 0x2f
    186e:	78 a9       	ldd	r23, Y+48	; 0x30
    1870:	89 a9       	ldd	r24, Y+49	; 0x31
    1872:	9a a9       	ldd	r25, Y+50	; 0x32
    1874:	0e 94 21 18 	call	0x3042	; 0x3042 <__gesf2>
    1878:	18 16       	cp	r1, r24
    187a:	0c f0       	brlt	.+2      	; 0x187e <.LM88>

0000187c <L0^A>:
    187c:	4e c0       	rjmp	.+156    	; 0x191a <.L92>

0000187e <.LM88>:
    187e:	20 e0       	ldi	r18, 0x00	; 0
    1880:	30 e0       	ldi	r19, 0x00	; 0
    1882:	40 e2       	ldi	r20, 0x20	; 32
    1884:	51 e4       	ldi	r21, 0x41	; 65
    1886:	6b a5       	ldd	r22, Y+43	; 0x2b
    1888:	7c a5       	ldd	r23, Y+44	; 0x2c
    188a:	8d a5       	ldd	r24, Y+45	; 0x2d
    188c:	9e a5       	ldd	r25, Y+46	; 0x2e
    188e:	0e 94 26 18 	call	0x304c	; 0x304c <__mulsf3>
    1892:	cc 54       	subi	r28, 0x4C	; 76
    1894:	df 4f       	sbci	r29, 0xFF	; 255
    1896:	68 83       	st	Y, r22
    1898:	79 83       	std	Y+1, r23	; 0x01
    189a:	8a 83       	std	Y+2, r24	; 0x02
    189c:	9b 83       	std	Y+3, r25	; 0x03
    189e:	c4 5b       	subi	r28, 0xB4	; 180
    18a0:	d0 40       	sbci	r29, 0x00	; 0
    18a2:	cc 54       	subi	r28, 0x4C	; 76
    18a4:	df 4f       	sbci	r29, 0xFF	; 255
    18a6:	88 81       	ld	r24, Y
    18a8:	99 81       	ldd	r25, Y+1	; 0x01
    18aa:	aa 81       	ldd	r26, Y+2	; 0x02
    18ac:	bb 81       	ldd	r27, Y+3	; 0x03
    18ae:	c4 5b       	subi	r28, 0xB4	; 180
    18b0:	d0 40       	sbci	r29, 0x00	; 0
    18b2:	e4 96       	adiw	r28, 0x34	; 52
    18b4:	8c af       	std	Y+60, r24	; 0x3c
    18b6:	9d af       	std	Y+61, r25	; 0x3d
    18b8:	ae af       	std	Y+62, r26	; 0x3e
    18ba:	bf af       	std	Y+63, r27	; 0x3f
    18bc:	e4 97       	sbiw	r28, 0x34	; 52

000018be <.LM89>:
    18be:	e4 96       	adiw	r28, 0x34	; 52
    18c0:	6c ad       	ldd	r22, Y+60	; 0x3c
    18c2:	7d ad       	ldd	r23, Y+61	; 0x3d
    18c4:	8e ad       	ldd	r24, Y+62	; 0x3e
    18c6:	9f ad       	ldd	r25, Y+63	; 0x3f
    18c8:	e4 97       	sbiw	r28, 0x34	; 52
    18ca:	0e 94 40 17 	call	0x2e80	; 0x2e80 <__fixunssfsi>
    18ce:	c8 54       	subi	r28, 0x48	; 72
    18d0:	df 4f       	sbci	r29, 0xFF	; 255
    18d2:	68 83       	st	Y, r22
    18d4:	79 83       	std	Y+1, r23	; 0x01
    18d6:	8a 83       	std	Y+2, r24	; 0x02
    18d8:	9b 83       	std	Y+3, r25	; 0x03
    18da:	c8 5b       	subi	r28, 0xB8	; 184
    18dc:	d0 40       	sbci	r29, 0x00	; 0
    18de:	c8 54       	subi	r28, 0x48	; 72
    18e0:	df 4f       	sbci	r29, 0xFF	; 255
    18e2:	a8 81       	ld	r26, Y
    18e4:	b9 81       	ldd	r27, Y+1	; 0x01
    18e6:	c8 5b       	subi	r28, 0xB8	; 184
    18e8:	d0 40       	sbci	r29, 0x00	; 0
    18ea:	bc ab       	std	Y+52, r27	; 0x34
    18ec:	ab ab       	std	Y+51, r26	; 0x33

000018ee <.LM90>:
    18ee:	10 c0       	rjmp	.+32     	; 0x1910 <.L44>

000018f0 <.L45>:
    18f0:	80 e9       	ldi	r24, 0x90	; 144
    18f2:	91 e0       	ldi	r25, 0x01	; 1
    18f4:	9e ab       	std	Y+54, r25	; 0x36
    18f6:	8d ab       	std	Y+53, r24	; 0x35

000018f8 <.LM91>:
    18f8:	8d a9       	ldd	r24, Y+53	; 0x35
    18fa:	9e a9       	ldd	r25, Y+54	; 0x36

000018fc <.L1^B9>:
    18fc:	01 97       	sbiw	r24, 0x01	; 1
    18fe:	f1 f7       	brne	.-4      	; 0x18fc <.L1^B9>
    1900:	9e ab       	std	Y+54, r25	; 0x36
    1902:	8d ab       	std	Y+53, r24	; 0x35

00001904 <.LM92>:
	...

00001906 <.LM93>:
    1906:	8b a9       	ldd	r24, Y+51	; 0x33
    1908:	9c a9       	ldd	r25, Y+52	; 0x34
    190a:	01 97       	sbiw	r24, 0x01	; 1
    190c:	9c ab       	std	Y+52, r25	; 0x34
    190e:	8b ab       	std	Y+51, r24	; 0x33

00001910 <.L44>:
    1910:	8b a9       	ldd	r24, Y+51	; 0x33
    1912:	9c a9       	ldd	r25, Y+52	; 0x34
    1914:	89 2b       	or	r24, r25
    1916:	61 f7       	brne	.-40     	; 0x18f0 <.L45>

00001918 <.LM95>:
    1918:	21 c0       	rjmp	.+66     	; 0x195c <.L46>

0000191a <.L92>:
    191a:	6f a5       	ldd	r22, Y+47	; 0x2f
    191c:	78 a9       	ldd	r23, Y+48	; 0x30
    191e:	89 a9       	ldd	r24, Y+49	; 0x31
    1920:	9a a9       	ldd	r25, Y+50	; 0x32
    1922:	0e 94 40 17 	call	0x2e80	; 0x2e80 <__fixunssfsi>
    1926:	c4 54       	subi	r28, 0x44	; 68
    1928:	df 4f       	sbci	r29, 0xFF	; 255
    192a:	68 83       	st	Y, r22
    192c:	79 83       	std	Y+1, r23	; 0x01
    192e:	8a 83       	std	Y+2, r24	; 0x02
    1930:	9b 83       	std	Y+3, r25	; 0x03
    1932:	cc 5b       	subi	r28, 0xBC	; 188
    1934:	d0 40       	sbci	r29, 0x00	; 0
    1936:	c4 54       	subi	r28, 0x44	; 68
    1938:	df 4f       	sbci	r29, 0xFF	; 255
    193a:	e8 81       	ld	r30, Y
    193c:	f9 81       	ldd	r31, Y+1	; 0x01
    193e:	cc 5b       	subi	r28, 0xBC	; 188
    1940:	d0 40       	sbci	r29, 0x00	; 0
    1942:	fc ab       	std	Y+52, r31	; 0x34
    1944:	eb ab       	std	Y+51, r30	; 0x33

00001946 <.L41>:
    1946:	8b a9       	ldd	r24, Y+51	; 0x33
    1948:	9c a9       	ldd	r25, Y+52	; 0x34
    194a:	98 af       	std	Y+56, r25	; 0x38
    194c:	8f ab       	std	Y+55, r24	; 0x37

0000194e <.LM97>:
    194e:	8f a9       	ldd	r24, Y+55	; 0x37
    1950:	98 ad       	ldd	r25, Y+56	; 0x38

00001952 <.L1^B10>:
    1952:	01 97       	sbiw	r24, 0x01	; 1
    1954:	f1 f7       	brne	.-4      	; 0x1952 <.L1^B10>
    1956:	98 af       	std	Y+56, r25	; 0x38
    1958:	8f ab       	std	Y+55, r24	; 0x37

0000195a <.LM98>:
	...

0000195c <.L46>:
    195c:	41 e0       	ldi	r20, 0x01	; 1
    195e:	62 e0       	ldi	r22, 0x02	; 2
    1960:	80 e0       	ldi	r24, 0x00	; 0
    1962:	0e 94 86 04 	call	0x90c	; 0x90c <GPIO_writePin>
    1966:	80 e0       	ldi	r24, 0x00	; 0
    1968:	90 e0       	ldi	r25, 0x00	; 0
    196a:	a0 e8       	ldi	r26, 0x80	; 128
    196c:	bf e3       	ldi	r27, 0x3F	; 63
    196e:	8d 8f       	std	Y+29, r24	; 0x1d
    1970:	9e 8f       	std	Y+30, r25	; 0x1e
    1972:	af 8f       	std	Y+31, r26	; 0x1f
    1974:	b8 a3       	std	Y+32, r27	; 0x20

00001976 <.LM100>:
    1976:	20 e0       	ldi	r18, 0x00	; 0
    1978:	30 e0       	ldi	r19, 0x00	; 0
    197a:	4a e7       	ldi	r20, 0x7A	; 122
    197c:	55 e4       	ldi	r21, 0x45	; 69
    197e:	6d 8d       	ldd	r22, Y+29	; 0x1d
    1980:	7e 8d       	ldd	r23, Y+30	; 0x1e
    1982:	8f 8d       	ldd	r24, Y+31	; 0x1f
    1984:	98 a1       	ldd	r25, Y+32	; 0x20
    1986:	0e 94 26 18 	call	0x304c	; 0x304c <__mulsf3>
    198a:	c0 54       	subi	r28, 0x40	; 64
    198c:	df 4f       	sbci	r29, 0xFF	; 255
    198e:	68 83       	st	Y, r22
    1990:	79 83       	std	Y+1, r23	; 0x01
    1992:	8a 83       	std	Y+2, r24	; 0x02
    1994:	9b 83       	std	Y+3, r25	; 0x03
    1996:	c0 5c       	subi	r28, 0xC0	; 192
    1998:	d0 40       	sbci	r29, 0x00	; 0
    199a:	c0 54       	subi	r28, 0x40	; 64
    199c:	df 4f       	sbci	r29, 0xFF	; 255
    199e:	28 81       	ld	r18, Y
    19a0:	39 81       	ldd	r19, Y+1	; 0x01
    19a2:	4a 81       	ldd	r20, Y+2	; 0x02
    19a4:	5b 81       	ldd	r21, Y+3	; 0x03
    19a6:	c0 5c       	subi	r28, 0xC0	; 192
    19a8:	d0 40       	sbci	r29, 0x00	; 0
    19aa:	29 a3       	std	Y+33, r18	; 0x21
    19ac:	3a a3       	std	Y+34, r19	; 0x22
    19ae:	4b a3       	std	Y+35, r20	; 0x23
    19b0:	5c a3       	std	Y+36, r21	; 0x24

000019b2 <.LM101>:
    19b2:	20 e0       	ldi	r18, 0x00	; 0
    19b4:	30 e0       	ldi	r19, 0x00	; 0
    19b6:	40 e8       	ldi	r20, 0x80	; 128
    19b8:	5f e3       	ldi	r21, 0x3F	; 63
    19ba:	69 a1       	ldd	r22, Y+33	; 0x21
    19bc:	7a a1       	ldd	r23, Y+34	; 0x22
    19be:	8b a1       	ldd	r24, Y+35	; 0x23
    19c0:	9c a1       	ldd	r25, Y+36	; 0x24
    19c2:	0e 94 c9 16 	call	0x2d92	; 0x2d92 <__cmpsf2>
    19c6:	88 23       	and	r24, r24
    19c8:	2c f4       	brge	.+10     	; 0x19d4 <.L93>

000019ca <.LM102>:
    19ca:	81 e0       	ldi	r24, 0x01	; 1
    19cc:	90 e0       	ldi	r25, 0x00	; 0
    19ce:	9e a3       	std	Y+38, r25	; 0x26
    19d0:	8d a3       	std	Y+37, r24	; 0x25
    19d2:	71 c0       	rjmp	.+226    	; 0x1ab6 <.L49>

000019d4 <.L93>:
    19d4:	20 e0       	ldi	r18, 0x00	; 0
    19d6:	3f ef       	ldi	r19, 0xFF	; 255
    19d8:	4f e7       	ldi	r20, 0x7F	; 127
    19da:	57 e4       	ldi	r21, 0x47	; 71
    19dc:	69 a1       	ldd	r22, Y+33	; 0x21
    19de:	7a a1       	ldd	r23, Y+34	; 0x22
    19e0:	8b a1       	ldd	r24, Y+35	; 0x23
    19e2:	9c a1       	ldd	r25, Y+36	; 0x24
    19e4:	0e 94 21 18 	call	0x3042	; 0x3042 <__gesf2>
    19e8:	18 16       	cp	r1, r24
    19ea:	0c f0       	brlt	.+2      	; 0x19ee <.LM104>

000019ec <L0^A>:
    19ec:	4e c0       	rjmp	.+156    	; 0x1a8a <.L94>

000019ee <.LM104>:
    19ee:	20 e0       	ldi	r18, 0x00	; 0
    19f0:	30 e0       	ldi	r19, 0x00	; 0
    19f2:	40 e2       	ldi	r20, 0x20	; 32
    19f4:	51 e4       	ldi	r21, 0x41	; 65
    19f6:	6d 8d       	ldd	r22, Y+29	; 0x1d
    19f8:	7e 8d       	ldd	r23, Y+30	; 0x1e
    19fa:	8f 8d       	ldd	r24, Y+31	; 0x1f
    19fc:	98 a1       	ldd	r25, Y+32	; 0x20
    19fe:	0e 94 26 18 	call	0x304c	; 0x304c <__mulsf3>
    1a02:	cc 53       	subi	r28, 0x3C	; 60
    1a04:	df 4f       	sbci	r29, 0xFF	; 255
    1a06:	68 83       	st	Y, r22
    1a08:	79 83       	std	Y+1, r23	; 0x01
    1a0a:	8a 83       	std	Y+2, r24	; 0x02
    1a0c:	9b 83       	std	Y+3, r25	; 0x03
    1a0e:	c4 5c       	subi	r28, 0xC4	; 196
    1a10:	d0 40       	sbci	r29, 0x00	; 0
    1a12:	cc 53       	subi	r28, 0x3C	; 60
    1a14:	df 4f       	sbci	r29, 0xFF	; 255
    1a16:	88 81       	ld	r24, Y
    1a18:	99 81       	ldd	r25, Y+1	; 0x01
    1a1a:	aa 81       	ldd	r26, Y+2	; 0x02
    1a1c:	bb 81       	ldd	r27, Y+3	; 0x03
    1a1e:	c4 5c       	subi	r28, 0xC4	; 196
    1a20:	d0 40       	sbci	r29, 0x00	; 0
    1a22:	e0 96       	adiw	r28, 0x30	; 48
    1a24:	8c af       	std	Y+60, r24	; 0x3c
    1a26:	9d af       	std	Y+61, r25	; 0x3d
    1a28:	ae af       	std	Y+62, r26	; 0x3e
    1a2a:	bf af       	std	Y+63, r27	; 0x3f
    1a2c:	e0 97       	sbiw	r28, 0x30	; 48

00001a2e <.LM105>:
    1a2e:	e0 96       	adiw	r28, 0x30	; 48
    1a30:	6c ad       	ldd	r22, Y+60	; 0x3c
    1a32:	7d ad       	ldd	r23, Y+61	; 0x3d
    1a34:	8e ad       	ldd	r24, Y+62	; 0x3e
    1a36:	9f ad       	ldd	r25, Y+63	; 0x3f
    1a38:	e0 97       	sbiw	r28, 0x30	; 48
    1a3a:	0e 94 40 17 	call	0x2e80	; 0x2e80 <__fixunssfsi>
    1a3e:	c8 53       	subi	r28, 0x38	; 56
    1a40:	df 4f       	sbci	r29, 0xFF	; 255
    1a42:	68 83       	st	Y, r22
    1a44:	79 83       	std	Y+1, r23	; 0x01
    1a46:	8a 83       	std	Y+2, r24	; 0x02
    1a48:	9b 83       	std	Y+3, r25	; 0x03
    1a4a:	c8 5c       	subi	r28, 0xC8	; 200
    1a4c:	d0 40       	sbci	r29, 0x00	; 0
    1a4e:	c8 53       	subi	r28, 0x38	; 56
    1a50:	df 4f       	sbci	r29, 0xFF	; 255
    1a52:	a8 81       	ld	r26, Y
    1a54:	b9 81       	ldd	r27, Y+1	; 0x01
    1a56:	c8 5c       	subi	r28, 0xC8	; 200
    1a58:	d0 40       	sbci	r29, 0x00	; 0
    1a5a:	be a3       	std	Y+38, r27	; 0x26
    1a5c:	ad a3       	std	Y+37, r26	; 0x25

00001a5e <.LM106>:
    1a5e:	10 c0       	rjmp	.+32     	; 0x1a80 <.L52>

00001a60 <.L53>:
    1a60:	80 e9       	ldi	r24, 0x90	; 144
    1a62:	91 e0       	ldi	r25, 0x01	; 1
    1a64:	98 a7       	std	Y+40, r25	; 0x28
    1a66:	8f a3       	std	Y+39, r24	; 0x27

00001a68 <.LM107>:
    1a68:	8f a1       	ldd	r24, Y+39	; 0x27
    1a6a:	98 a5       	ldd	r25, Y+40	; 0x28

00001a6c <.L1^B11>:
    1a6c:	01 97       	sbiw	r24, 0x01	; 1
    1a6e:	f1 f7       	brne	.-4      	; 0x1a6c <.L1^B11>
    1a70:	98 a7       	std	Y+40, r25	; 0x28
    1a72:	8f a3       	std	Y+39, r24	; 0x27

00001a74 <.LM108>:
	...

00001a76 <.LM109>:
    1a76:	8d a1       	ldd	r24, Y+37	; 0x25
    1a78:	9e a1       	ldd	r25, Y+38	; 0x26
    1a7a:	01 97       	sbiw	r24, 0x01	; 1
    1a7c:	9e a3       	std	Y+38, r25	; 0x26
    1a7e:	8d a3       	std	Y+37, r24	; 0x25

00001a80 <.L52>:
    1a80:	8d a1       	ldd	r24, Y+37	; 0x25
    1a82:	9e a1       	ldd	r25, Y+38	; 0x26
    1a84:	89 2b       	or	r24, r25
    1a86:	61 f7       	brne	.-40     	; 0x1a60 <.L53>

00001a88 <.LM111>:
    1a88:	21 c0       	rjmp	.+66     	; 0x1acc <.L54>

00001a8a <.L94>:
    1a8a:	69 a1       	ldd	r22, Y+33	; 0x21
    1a8c:	7a a1       	ldd	r23, Y+34	; 0x22
    1a8e:	8b a1       	ldd	r24, Y+35	; 0x23
    1a90:	9c a1       	ldd	r25, Y+36	; 0x24
    1a92:	0e 94 40 17 	call	0x2e80	; 0x2e80 <__fixunssfsi>
    1a96:	c4 53       	subi	r28, 0x34	; 52
    1a98:	df 4f       	sbci	r29, 0xFF	; 255
    1a9a:	68 83       	st	Y, r22
    1a9c:	79 83       	std	Y+1, r23	; 0x01
    1a9e:	8a 83       	std	Y+2, r24	; 0x02
    1aa0:	9b 83       	std	Y+3, r25	; 0x03
    1aa2:	cc 5c       	subi	r28, 0xCC	; 204
    1aa4:	d0 40       	sbci	r29, 0x00	; 0
    1aa6:	c4 53       	subi	r28, 0x34	; 52
    1aa8:	df 4f       	sbci	r29, 0xFF	; 255
    1aaa:	e8 81       	ld	r30, Y
    1aac:	f9 81       	ldd	r31, Y+1	; 0x01
    1aae:	cc 5c       	subi	r28, 0xCC	; 204
    1ab0:	d0 40       	sbci	r29, 0x00	; 0
    1ab2:	fe a3       	std	Y+38, r31	; 0x26
    1ab4:	ed a3       	std	Y+37, r30	; 0x25

00001ab6 <.L49>:
    1ab6:	8d a1       	ldd	r24, Y+37	; 0x25
    1ab8:	9e a1       	ldd	r25, Y+38	; 0x26
    1aba:	9a a7       	std	Y+42, r25	; 0x2a
    1abc:	89 a7       	std	Y+41, r24	; 0x29

00001abe <.LM113>:
    1abe:	89 a5       	ldd	r24, Y+41	; 0x29
    1ac0:	9a a5       	ldd	r25, Y+42	; 0x2a

00001ac2 <.L1^B12>:
    1ac2:	01 97       	sbiw	r24, 0x01	; 1
    1ac4:	f1 f7       	brne	.-4      	; 0x1ac2 <.L1^B12>
    1ac6:	9a a7       	std	Y+42, r25	; 0x2a
    1ac8:	89 a7       	std	Y+41, r24	; 0x29

00001aca <.LM114>:
	...

00001acc <.L54>:
    1acc:	ce 01       	movw	r24, r28
    1ace:	8d 59       	subi	r24, 0x9D	; 157
    1ad0:	9f 4f       	sbci	r25, 0xFF	; 255
    1ad2:	dc 01       	movw	r26, r24
    1ad4:	8c 91       	ld	r24, X
    1ad6:	81 70       	andi	r24, 0x01	; 1
    1ad8:	48 2f       	mov	r20, r24
    1ada:	63 e0       	ldi	r22, 0x03	; 3
    1adc:	80 e0       	ldi	r24, 0x00	; 0
    1ade:	0e 94 86 04 	call	0x90c	; 0x90c <GPIO_writePin>

00001ae2 <.LM116>:
    1ae2:	ce 01       	movw	r24, r28
    1ae4:	8d 59       	subi	r24, 0x9D	; 157
    1ae6:	9f 4f       	sbci	r25, 0xFF	; 255
    1ae8:	fc 01       	movw	r30, r24
    1aea:	80 81       	ld	r24, Z
    1aec:	88 2f       	mov	r24, r24
    1aee:	90 e0       	ldi	r25, 0x00	; 0
    1af0:	95 95       	asr	r25
    1af2:	87 95       	ror	r24

00001af4 <.LM117>:
    1af4:	81 70       	andi	r24, 0x01	; 1
    1af6:	48 2f       	mov	r20, r24
    1af8:	64 e0       	ldi	r22, 0x04	; 4
    1afa:	80 e0       	ldi	r24, 0x00	; 0
    1afc:	0e 94 86 04 	call	0x90c	; 0x90c <GPIO_writePin>

00001b00 <.LM118>:
    1b00:	ce 01       	movw	r24, r28
    1b02:	8d 59       	subi	r24, 0x9D	; 157
    1b04:	9f 4f       	sbci	r25, 0xFF	; 255
    1b06:	dc 01       	movw	r26, r24
    1b08:	8c 91       	ld	r24, X
    1b0a:	88 2f       	mov	r24, r24
    1b0c:	90 e0       	ldi	r25, 0x00	; 0
    1b0e:	95 95       	asr	r25
    1b10:	87 95       	ror	r24
    1b12:	95 95       	asr	r25
    1b14:	87 95       	ror	r24

00001b16 <.LM119>:
    1b16:	81 70       	andi	r24, 0x01	; 1
    1b18:	48 2f       	mov	r20, r24
    1b1a:	65 e0       	ldi	r22, 0x05	; 5
    1b1c:	80 e0       	ldi	r24, 0x00	; 0
    1b1e:	0e 94 86 04 	call	0x90c	; 0x90c <GPIO_writePin>

00001b22 <.LM120>:
    1b22:	ce 01       	movw	r24, r28
    1b24:	8d 59       	subi	r24, 0x9D	; 157
    1b26:	9f 4f       	sbci	r25, 0xFF	; 255
    1b28:	fc 01       	movw	r30, r24
    1b2a:	80 81       	ld	r24, Z
    1b2c:	88 2f       	mov	r24, r24
    1b2e:	90 e0       	ldi	r25, 0x00	; 0
    1b30:	95 95       	asr	r25
    1b32:	87 95       	ror	r24
    1b34:	95 95       	asr	r25
    1b36:	87 95       	ror	r24
    1b38:	95 95       	asr	r25
    1b3a:	87 95       	ror	r24

00001b3c <.LM121>:
    1b3c:	81 70       	andi	r24, 0x01	; 1
    1b3e:	48 2f       	mov	r20, r24
    1b40:	66 e0       	ldi	r22, 0x06	; 6
    1b42:	80 e0       	ldi	r24, 0x00	; 0
    1b44:	0e 94 86 04 	call	0x90c	; 0x90c <GPIO_writePin>
    1b48:	80 e0       	ldi	r24, 0x00	; 0
    1b4a:	90 e0       	ldi	r25, 0x00	; 0
    1b4c:	a0 e8       	ldi	r26, 0x80	; 128
    1b4e:	bf e3       	ldi	r27, 0x3F	; 63
    1b50:	8f 87       	std	Y+15, r24	; 0x0f
    1b52:	98 8b       	std	Y+16, r25	; 0x10
    1b54:	a9 8b       	std	Y+17, r26	; 0x11
    1b56:	ba 8b       	std	Y+18, r27	; 0x12

00001b58 <.LM122>:
    1b58:	20 e0       	ldi	r18, 0x00	; 0
    1b5a:	30 e0       	ldi	r19, 0x00	; 0
    1b5c:	4a e7       	ldi	r20, 0x7A	; 122
    1b5e:	55 e4       	ldi	r21, 0x45	; 69
    1b60:	6f 85       	ldd	r22, Y+15	; 0x0f
    1b62:	78 89       	ldd	r23, Y+16	; 0x10
    1b64:	89 89       	ldd	r24, Y+17	; 0x11
    1b66:	9a 89       	ldd	r25, Y+18	; 0x12
    1b68:	0e 94 26 18 	call	0x304c	; 0x304c <__mulsf3>
    1b6c:	c0 53       	subi	r28, 0x30	; 48
    1b6e:	df 4f       	sbci	r29, 0xFF	; 255
    1b70:	68 83       	st	Y, r22
    1b72:	79 83       	std	Y+1, r23	; 0x01
    1b74:	8a 83       	std	Y+2, r24	; 0x02
    1b76:	9b 83       	std	Y+3, r25	; 0x03
    1b78:	c0 5d       	subi	r28, 0xD0	; 208
    1b7a:	d0 40       	sbci	r29, 0x00	; 0
    1b7c:	c0 53       	subi	r28, 0x30	; 48
    1b7e:	df 4f       	sbci	r29, 0xFF	; 255
    1b80:	28 81       	ld	r18, Y
    1b82:	39 81       	ldd	r19, Y+1	; 0x01
    1b84:	4a 81       	ldd	r20, Y+2	; 0x02
    1b86:	5b 81       	ldd	r21, Y+3	; 0x03
    1b88:	c0 5d       	subi	r28, 0xD0	; 208
    1b8a:	d0 40       	sbci	r29, 0x00	; 0
    1b8c:	2b 8b       	std	Y+19, r18	; 0x13
    1b8e:	3c 8b       	std	Y+20, r19	; 0x14
    1b90:	4d 8b       	std	Y+21, r20	; 0x15
    1b92:	5e 8b       	std	Y+22, r21	; 0x16

00001b94 <.LM123>:
    1b94:	20 e0       	ldi	r18, 0x00	; 0
    1b96:	30 e0       	ldi	r19, 0x00	; 0
    1b98:	40 e8       	ldi	r20, 0x80	; 128
    1b9a:	5f e3       	ldi	r21, 0x3F	; 63
    1b9c:	6b 89       	ldd	r22, Y+19	; 0x13
    1b9e:	7c 89       	ldd	r23, Y+20	; 0x14
    1ba0:	8d 89       	ldd	r24, Y+21	; 0x15
    1ba2:	9e 89       	ldd	r25, Y+22	; 0x16
    1ba4:	0e 94 c9 16 	call	0x2d92	; 0x2d92 <__cmpsf2>
    1ba8:	88 23       	and	r24, r24
    1baa:	2c f4       	brge	.+10     	; 0x1bb6 <.L95>

00001bac <.LM124>:
    1bac:	81 e0       	ldi	r24, 0x01	; 1
    1bae:	90 e0       	ldi	r25, 0x00	; 0
    1bb0:	98 8f       	std	Y+24, r25	; 0x18
    1bb2:	8f 8b       	std	Y+23, r24	; 0x17
    1bb4:	71 c0       	rjmp	.+226    	; 0x1c98 <.L57>

00001bb6 <.L95>:
    1bb6:	20 e0       	ldi	r18, 0x00	; 0
    1bb8:	3f ef       	ldi	r19, 0xFF	; 255
    1bba:	4f e7       	ldi	r20, 0x7F	; 127
    1bbc:	57 e4       	ldi	r21, 0x47	; 71
    1bbe:	6b 89       	ldd	r22, Y+19	; 0x13
    1bc0:	7c 89       	ldd	r23, Y+20	; 0x14
    1bc2:	8d 89       	ldd	r24, Y+21	; 0x15
    1bc4:	9e 89       	ldd	r25, Y+22	; 0x16
    1bc6:	0e 94 21 18 	call	0x3042	; 0x3042 <__gesf2>
    1bca:	18 16       	cp	r1, r24
    1bcc:	0c f0       	brlt	.+2      	; 0x1bd0 <.LM126>

00001bce <L0^A>:
    1bce:	4e c0       	rjmp	.+156    	; 0x1c6c <.L96>

00001bd0 <.LM126>:
    1bd0:	20 e0       	ldi	r18, 0x00	; 0
    1bd2:	30 e0       	ldi	r19, 0x00	; 0
    1bd4:	40 e2       	ldi	r20, 0x20	; 32
    1bd6:	51 e4       	ldi	r21, 0x41	; 65
    1bd8:	6f 85       	ldd	r22, Y+15	; 0x0f
    1bda:	78 89       	ldd	r23, Y+16	; 0x10
    1bdc:	89 89       	ldd	r24, Y+17	; 0x11
    1bde:	9a 89       	ldd	r25, Y+18	; 0x12
    1be0:	0e 94 26 18 	call	0x304c	; 0x304c <__mulsf3>
    1be4:	cc 52       	subi	r28, 0x2C	; 44
    1be6:	df 4f       	sbci	r29, 0xFF	; 255
    1be8:	68 83       	st	Y, r22
    1bea:	79 83       	std	Y+1, r23	; 0x01
    1bec:	8a 83       	std	Y+2, r24	; 0x02
    1bee:	9b 83       	std	Y+3, r25	; 0x03
    1bf0:	c4 5d       	subi	r28, 0xD4	; 212
    1bf2:	d0 40       	sbci	r29, 0x00	; 0
    1bf4:	cc 52       	subi	r28, 0x2C	; 44
    1bf6:	df 4f       	sbci	r29, 0xFF	; 255
    1bf8:	88 81       	ld	r24, Y
    1bfa:	99 81       	ldd	r25, Y+1	; 0x01
    1bfc:	aa 81       	ldd	r26, Y+2	; 0x02
    1bfe:	bb 81       	ldd	r27, Y+3	; 0x03
    1c00:	c4 5d       	subi	r28, 0xD4	; 212
    1c02:	d0 40       	sbci	r29, 0x00	; 0
    1c04:	ac 96       	adiw	r28, 0x2c	; 44
    1c06:	8c af       	std	Y+60, r24	; 0x3c
    1c08:	9d af       	std	Y+61, r25	; 0x3d
    1c0a:	ae af       	std	Y+62, r26	; 0x3e
    1c0c:	bf af       	std	Y+63, r27	; 0x3f
    1c0e:	ac 97       	sbiw	r28, 0x2c	; 44

00001c10 <.LM127>:
    1c10:	ac 96       	adiw	r28, 0x2c	; 44
    1c12:	6c ad       	ldd	r22, Y+60	; 0x3c
    1c14:	7d ad       	ldd	r23, Y+61	; 0x3d
    1c16:	8e ad       	ldd	r24, Y+62	; 0x3e
    1c18:	9f ad       	ldd	r25, Y+63	; 0x3f
    1c1a:	ac 97       	sbiw	r28, 0x2c	; 44
    1c1c:	0e 94 40 17 	call	0x2e80	; 0x2e80 <__fixunssfsi>
    1c20:	c8 52       	subi	r28, 0x28	; 40
    1c22:	df 4f       	sbci	r29, 0xFF	; 255
    1c24:	68 83       	st	Y, r22
    1c26:	79 83       	std	Y+1, r23	; 0x01
    1c28:	8a 83       	std	Y+2, r24	; 0x02
    1c2a:	9b 83       	std	Y+3, r25	; 0x03
    1c2c:	c8 5d       	subi	r28, 0xD8	; 216
    1c2e:	d0 40       	sbci	r29, 0x00	; 0
    1c30:	c8 52       	subi	r28, 0x28	; 40
    1c32:	df 4f       	sbci	r29, 0xFF	; 255
    1c34:	a8 81       	ld	r26, Y
    1c36:	b9 81       	ldd	r27, Y+1	; 0x01
    1c38:	c8 5d       	subi	r28, 0xD8	; 216
    1c3a:	d0 40       	sbci	r29, 0x00	; 0
    1c3c:	b8 8f       	std	Y+24, r27	; 0x18
    1c3e:	af 8b       	std	Y+23, r26	; 0x17

00001c40 <.LM128>:
    1c40:	10 c0       	rjmp	.+32     	; 0x1c62 <.L60>

00001c42 <.L61>:
    1c42:	80 e9       	ldi	r24, 0x90	; 144
    1c44:	91 e0       	ldi	r25, 0x01	; 1
    1c46:	9a 8f       	std	Y+26, r25	; 0x1a
    1c48:	89 8f       	std	Y+25, r24	; 0x19

00001c4a <.LM129>:
    1c4a:	89 8d       	ldd	r24, Y+25	; 0x19
    1c4c:	9a 8d       	ldd	r25, Y+26	; 0x1a

00001c4e <.L1^B13>:
    1c4e:	01 97       	sbiw	r24, 0x01	; 1
    1c50:	f1 f7       	brne	.-4      	; 0x1c4e <.L1^B13>
    1c52:	9a 8f       	std	Y+26, r25	; 0x1a
    1c54:	89 8f       	std	Y+25, r24	; 0x19

00001c56 <.LM130>:
	...

00001c58 <.LM131>:
    1c58:	8f 89       	ldd	r24, Y+23	; 0x17
    1c5a:	98 8d       	ldd	r25, Y+24	; 0x18
    1c5c:	01 97       	sbiw	r24, 0x01	; 1
    1c5e:	98 8f       	std	Y+24, r25	; 0x18
    1c60:	8f 8b       	std	Y+23, r24	; 0x17

00001c62 <.L60>:
    1c62:	8f 89       	ldd	r24, Y+23	; 0x17
    1c64:	98 8d       	ldd	r25, Y+24	; 0x18
    1c66:	89 2b       	or	r24, r25
    1c68:	61 f7       	brne	.-40     	; 0x1c42 <.L61>

00001c6a <.LM133>:
    1c6a:	21 c0       	rjmp	.+66     	; 0x1cae <.L62>

00001c6c <.L96>:
    1c6c:	6b 89       	ldd	r22, Y+19	; 0x13
    1c6e:	7c 89       	ldd	r23, Y+20	; 0x14
    1c70:	8d 89       	ldd	r24, Y+21	; 0x15
    1c72:	9e 89       	ldd	r25, Y+22	; 0x16
    1c74:	0e 94 40 17 	call	0x2e80	; 0x2e80 <__fixunssfsi>
    1c78:	c4 52       	subi	r28, 0x24	; 36
    1c7a:	df 4f       	sbci	r29, 0xFF	; 255
    1c7c:	68 83       	st	Y, r22
    1c7e:	79 83       	std	Y+1, r23	; 0x01
    1c80:	8a 83       	std	Y+2, r24	; 0x02
    1c82:	9b 83       	std	Y+3, r25	; 0x03
    1c84:	cc 5d       	subi	r28, 0xDC	; 220
    1c86:	d0 40       	sbci	r29, 0x00	; 0
    1c88:	c4 52       	subi	r28, 0x24	; 36
    1c8a:	df 4f       	sbci	r29, 0xFF	; 255
    1c8c:	e8 81       	ld	r30, Y
    1c8e:	f9 81       	ldd	r31, Y+1	; 0x01
    1c90:	cc 5d       	subi	r28, 0xDC	; 220
    1c92:	d0 40       	sbci	r29, 0x00	; 0
    1c94:	f8 8f       	std	Y+24, r31	; 0x18
    1c96:	ef 8b       	std	Y+23, r30	; 0x17

00001c98 <.L57>:
    1c98:	8f 89       	ldd	r24, Y+23	; 0x17
    1c9a:	98 8d       	ldd	r25, Y+24	; 0x18
    1c9c:	9c 8f       	std	Y+28, r25	; 0x1c
    1c9e:	8b 8f       	std	Y+27, r24	; 0x1b

00001ca0 <.LM135>:
    1ca0:	8b 8d       	ldd	r24, Y+27	; 0x1b
    1ca2:	9c 8d       	ldd	r25, Y+28	; 0x1c

00001ca4 <.L1^B14>:
    1ca4:	01 97       	sbiw	r24, 0x01	; 1
    1ca6:	f1 f7       	brne	.-4      	; 0x1ca4 <.L1^B14>
    1ca8:	9c 8f       	std	Y+28, r25	; 0x1c
    1caa:	8b 8f       	std	Y+27, r24	; 0x1b

00001cac <.LM136>:
	...

00001cae <.L62>:
    1cae:	40 e0       	ldi	r20, 0x00	; 0
    1cb0:	62 e0       	ldi	r22, 0x02	; 2
    1cb2:	80 e0       	ldi	r24, 0x00	; 0
    1cb4:	0e 94 86 04 	call	0x90c	; 0x90c <GPIO_writePin>
    1cb8:	80 e0       	ldi	r24, 0x00	; 0
    1cba:	90 e0       	ldi	r25, 0x00	; 0
    1cbc:	a0 e8       	ldi	r26, 0x80	; 128
    1cbe:	bf e3       	ldi	r27, 0x3F	; 63
    1cc0:	89 83       	std	Y+1, r24	; 0x01
    1cc2:	9a 83       	std	Y+2, r25	; 0x02
    1cc4:	ab 83       	std	Y+3, r26	; 0x03
    1cc6:	bc 83       	std	Y+4, r27	; 0x04

00001cc8 <.LM138>:
    1cc8:	20 e0       	ldi	r18, 0x00	; 0
    1cca:	30 e0       	ldi	r19, 0x00	; 0
    1ccc:	4a e7       	ldi	r20, 0x7A	; 122
    1cce:	55 e4       	ldi	r21, 0x45	; 69
    1cd0:	69 81       	ldd	r22, Y+1	; 0x01
    1cd2:	7a 81       	ldd	r23, Y+2	; 0x02
    1cd4:	8b 81       	ldd	r24, Y+3	; 0x03
    1cd6:	9c 81       	ldd	r25, Y+4	; 0x04
    1cd8:	0e 94 26 18 	call	0x304c	; 0x304c <__mulsf3>
    1cdc:	c0 52       	subi	r28, 0x20	; 32
    1cde:	df 4f       	sbci	r29, 0xFF	; 255
    1ce0:	68 83       	st	Y, r22
    1ce2:	79 83       	std	Y+1, r23	; 0x01
    1ce4:	8a 83       	std	Y+2, r24	; 0x02
    1ce6:	9b 83       	std	Y+3, r25	; 0x03
    1ce8:	c0 5e       	subi	r28, 0xE0	; 224
    1cea:	d0 40       	sbci	r29, 0x00	; 0
    1cec:	c0 52       	subi	r28, 0x20	; 32
    1cee:	df 4f       	sbci	r29, 0xFF	; 255
    1cf0:	28 81       	ld	r18, Y
    1cf2:	39 81       	ldd	r19, Y+1	; 0x01
    1cf4:	4a 81       	ldd	r20, Y+2	; 0x02
    1cf6:	5b 81       	ldd	r21, Y+3	; 0x03
    1cf8:	c0 5e       	subi	r28, 0xE0	; 224
    1cfa:	d0 40       	sbci	r29, 0x00	; 0
    1cfc:	2d 83       	std	Y+5, r18	; 0x05
    1cfe:	3e 83       	std	Y+6, r19	; 0x06
    1d00:	4f 83       	std	Y+7, r20	; 0x07
    1d02:	58 87       	std	Y+8, r21	; 0x08

00001d04 <.LM139>:
    1d04:	20 e0       	ldi	r18, 0x00	; 0
    1d06:	30 e0       	ldi	r19, 0x00	; 0
    1d08:	40 e8       	ldi	r20, 0x80	; 128
    1d0a:	5f e3       	ldi	r21, 0x3F	; 63
    1d0c:	6d 81       	ldd	r22, Y+5	; 0x05
    1d0e:	7e 81       	ldd	r23, Y+6	; 0x06
    1d10:	8f 81       	ldd	r24, Y+7	; 0x07
    1d12:	98 85       	ldd	r25, Y+8	; 0x08
    1d14:	0e 94 c9 16 	call	0x2d92	; 0x2d92 <__cmpsf2>
    1d18:	88 23       	and	r24, r24
    1d1a:	2c f4       	brge	.+10     	; 0x1d26 <.L97>

00001d1c <.LM140>:
    1d1c:	81 e0       	ldi	r24, 0x01	; 1
    1d1e:	90 e0       	ldi	r25, 0x00	; 0
    1d20:	9a 87       	std	Y+10, r25	; 0x0a
    1d22:	89 87       	std	Y+9, r24	; 0x09
    1d24:	71 c0       	rjmp	.+226    	; 0x1e08 <.L65>

00001d26 <.L97>:
    1d26:	20 e0       	ldi	r18, 0x00	; 0
    1d28:	3f ef       	ldi	r19, 0xFF	; 255
    1d2a:	4f e7       	ldi	r20, 0x7F	; 127
    1d2c:	57 e4       	ldi	r21, 0x47	; 71
    1d2e:	6d 81       	ldd	r22, Y+5	; 0x05
    1d30:	7e 81       	ldd	r23, Y+6	; 0x06
    1d32:	8f 81       	ldd	r24, Y+7	; 0x07
    1d34:	98 85       	ldd	r25, Y+8	; 0x08
    1d36:	0e 94 21 18 	call	0x3042	; 0x3042 <__gesf2>
    1d3a:	18 16       	cp	r1, r24
    1d3c:	0c f0       	brlt	.+2      	; 0x1d40 <.LM142>

00001d3e <L0^A>:
    1d3e:	4e c0       	rjmp	.+156    	; 0x1ddc <.L98>

00001d40 <.LM142>:
    1d40:	20 e0       	ldi	r18, 0x00	; 0
    1d42:	30 e0       	ldi	r19, 0x00	; 0
    1d44:	40 e2       	ldi	r20, 0x20	; 32
    1d46:	51 e4       	ldi	r21, 0x41	; 65
    1d48:	69 81       	ldd	r22, Y+1	; 0x01
    1d4a:	7a 81       	ldd	r23, Y+2	; 0x02
    1d4c:	8b 81       	ldd	r24, Y+3	; 0x03
    1d4e:	9c 81       	ldd	r25, Y+4	; 0x04
    1d50:	0e 94 26 18 	call	0x304c	; 0x304c <__mulsf3>
    1d54:	cc 51       	subi	r28, 0x1C	; 28
    1d56:	df 4f       	sbci	r29, 0xFF	; 255
    1d58:	68 83       	st	Y, r22
    1d5a:	79 83       	std	Y+1, r23	; 0x01
    1d5c:	8a 83       	std	Y+2, r24	; 0x02
    1d5e:	9b 83       	std	Y+3, r25	; 0x03
    1d60:	c4 5e       	subi	r28, 0xE4	; 228
    1d62:	d0 40       	sbci	r29, 0x00	; 0
    1d64:	cc 51       	subi	r28, 0x1C	; 28
    1d66:	df 4f       	sbci	r29, 0xFF	; 255
    1d68:	88 81       	ld	r24, Y
    1d6a:	99 81       	ldd	r25, Y+1	; 0x01
    1d6c:	aa 81       	ldd	r26, Y+2	; 0x02
    1d6e:	bb 81       	ldd	r27, Y+3	; 0x03
    1d70:	c4 5e       	subi	r28, 0xE4	; 228
    1d72:	d0 40       	sbci	r29, 0x00	; 0
    1d74:	a8 96       	adiw	r28, 0x28	; 40
    1d76:	8c af       	std	Y+60, r24	; 0x3c
    1d78:	9d af       	std	Y+61, r25	; 0x3d
    1d7a:	ae af       	std	Y+62, r26	; 0x3e
    1d7c:	bf af       	std	Y+63, r27	; 0x3f
    1d7e:	a8 97       	sbiw	r28, 0x28	; 40

00001d80 <.LM143>:
    1d80:	a8 96       	adiw	r28, 0x28	; 40
    1d82:	6c ad       	ldd	r22, Y+60	; 0x3c
    1d84:	7d ad       	ldd	r23, Y+61	; 0x3d
    1d86:	8e ad       	ldd	r24, Y+62	; 0x3e
    1d88:	9f ad       	ldd	r25, Y+63	; 0x3f
    1d8a:	a8 97       	sbiw	r28, 0x28	; 40
    1d8c:	0e 94 40 17 	call	0x2e80	; 0x2e80 <__fixunssfsi>
    1d90:	c8 51       	subi	r28, 0x18	; 24
    1d92:	df 4f       	sbci	r29, 0xFF	; 255
    1d94:	68 83       	st	Y, r22
    1d96:	79 83       	std	Y+1, r23	; 0x01
    1d98:	8a 83       	std	Y+2, r24	; 0x02
    1d9a:	9b 83       	std	Y+3, r25	; 0x03
    1d9c:	c8 5e       	subi	r28, 0xE8	; 232
    1d9e:	d0 40       	sbci	r29, 0x00	; 0
    1da0:	c8 51       	subi	r28, 0x18	; 24
    1da2:	df 4f       	sbci	r29, 0xFF	; 255
    1da4:	a8 81       	ld	r26, Y
    1da6:	b9 81       	ldd	r27, Y+1	; 0x01
    1da8:	c8 5e       	subi	r28, 0xE8	; 232
    1daa:	d0 40       	sbci	r29, 0x00	; 0
    1dac:	ba 87       	std	Y+10, r27	; 0x0a
    1dae:	a9 87       	std	Y+9, r26	; 0x09

00001db0 <.LM144>:
    1db0:	10 c0       	rjmp	.+32     	; 0x1dd2 <.L68>

00001db2 <.L69>:
    1db2:	80 e9       	ldi	r24, 0x90	; 144
    1db4:	91 e0       	ldi	r25, 0x01	; 1
    1db6:	9c 87       	std	Y+12, r25	; 0x0c
    1db8:	8b 87       	std	Y+11, r24	; 0x0b

00001dba <.LM145>:
    1dba:	8b 85       	ldd	r24, Y+11	; 0x0b
    1dbc:	9c 85       	ldd	r25, Y+12	; 0x0c

00001dbe <.L1^B15>:
    1dbe:	01 97       	sbiw	r24, 0x01	; 1
    1dc0:	f1 f7       	brne	.-4      	; 0x1dbe <.L1^B15>
    1dc2:	9c 87       	std	Y+12, r25	; 0x0c
    1dc4:	8b 87       	std	Y+11, r24	; 0x0b

00001dc6 <.LM146>:
	...

00001dc8 <.LM147>:
    1dc8:	89 85       	ldd	r24, Y+9	; 0x09
    1dca:	9a 85       	ldd	r25, Y+10	; 0x0a
    1dcc:	01 97       	sbiw	r24, 0x01	; 1
    1dce:	9a 87       	std	Y+10, r25	; 0x0a
    1dd0:	89 87       	std	Y+9, r24	; 0x09

00001dd2 <.L68>:
    1dd2:	89 85       	ldd	r24, Y+9	; 0x09
    1dd4:	9a 85       	ldd	r25, Y+10	; 0x0a
    1dd6:	89 2b       	or	r24, r25
    1dd8:	61 f7       	brne	.-40     	; 0x1db2 <.L69>

00001dda <.LM149>:
    1dda:	21 c0       	rjmp	.+66     	; 0x1e1e <.L70>

00001ddc <.L98>:
    1ddc:	6d 81       	ldd	r22, Y+5	; 0x05
    1dde:	7e 81       	ldd	r23, Y+6	; 0x06
    1de0:	8f 81       	ldd	r24, Y+7	; 0x07
    1de2:	98 85       	ldd	r25, Y+8	; 0x08
    1de4:	0e 94 40 17 	call	0x2e80	; 0x2e80 <__fixunssfsi>
    1de8:	c4 51       	subi	r28, 0x14	; 20
    1dea:	df 4f       	sbci	r29, 0xFF	; 255
    1dec:	68 83       	st	Y, r22
    1dee:	79 83       	std	Y+1, r23	; 0x01
    1df0:	8a 83       	std	Y+2, r24	; 0x02
    1df2:	9b 83       	std	Y+3, r25	; 0x03
    1df4:	cc 5e       	subi	r28, 0xEC	; 236
    1df6:	d0 40       	sbci	r29, 0x00	; 0
    1df8:	c4 51       	subi	r28, 0x14	; 20
    1dfa:	df 4f       	sbci	r29, 0xFF	; 255
    1dfc:	e8 81       	ld	r30, Y
    1dfe:	f9 81       	ldd	r31, Y+1	; 0x01
    1e00:	cc 5e       	subi	r28, 0xEC	; 236
    1e02:	d0 40       	sbci	r29, 0x00	; 0
    1e04:	fa 87       	std	Y+10, r31	; 0x0a
    1e06:	e9 87       	std	Y+9, r30	; 0x09

00001e08 <.L65>:
    1e08:	89 85       	ldd	r24, Y+9	; 0x09
    1e0a:	9a 85       	ldd	r25, Y+10	; 0x0a
    1e0c:	9e 87       	std	Y+14, r25	; 0x0e
    1e0e:	8d 87       	std	Y+13, r24	; 0x0d

00001e10 <.LM151>:
    1e10:	8d 85       	ldd	r24, Y+13	; 0x0d
    1e12:	9e 85       	ldd	r25, Y+14	; 0x0e

00001e14 <.L1^B16>:
    1e14:	01 97       	sbiw	r24, 0x01	; 1
    1e16:	f1 f7       	brne	.-4      	; 0x1e14 <.L1^B16>
    1e18:	9e 87       	std	Y+14, r25	; 0x0e
    1e1a:	8d 87       	std	Y+13, r24	; 0x0d

00001e1c <.LM152>:
	...

00001e1e <.L70>:
    1e1e:	00 00       	nop
    1e20:	c1 51       	subi	r28, 0x11	; 17
    1e22:	df 4f       	sbci	r29, 0xFF	; 255
    1e24:	0f b6       	in	r0, 0x3f	; 63
    1e26:	f8 94       	cli
    1e28:	de bf       	out	0x3e, r29	; 62
    1e2a:	0f be       	out	0x3f, r0	; 63
    1e2c:	cd bf       	out	0x3d, r28	; 61
    1e2e:	df 91       	pop	r29
    1e30:	cf 91       	pop	r28
    1e32:	1f 91       	pop	r17
    1e34:	0f 91       	pop	r16
    1e36:	08 95       	ret

00001e38 <LCD_displayCharacter>:
    1e38:	0f 93       	push	r16
    1e3a:	1f 93       	push	r17
    1e3c:	cf 93       	push	r28
    1e3e:	df 93       	push	r29
    1e40:	cd b7       	in	r28, 0x3d	; 61
    1e42:	de b7       	in	r29, 0x3e	; 62
    1e44:	cf 5e       	subi	r28, 0xEF	; 239
    1e46:	d1 09       	sbc	r29, r1
    1e48:	0f b6       	in	r0, 0x3f	; 63
    1e4a:	f8 94       	cli
    1e4c:	de bf       	out	0x3e, r29	; 62
    1e4e:	0f be       	out	0x3f, r0	; 63
    1e50:	cd bf       	out	0x3d, r28	; 61
    1e52:	9e 01       	movw	r18, r28
    1e54:	2d 59       	subi	r18, 0x9D	; 157
    1e56:	3f 4f       	sbci	r19, 0xFF	; 255
    1e58:	d9 01       	movw	r26, r18
    1e5a:	8c 93       	st	X, r24

00001e5c <.LM155>:
    1e5c:	41 e0       	ldi	r20, 0x01	; 1
    1e5e:	61 e0       	ldi	r22, 0x01	; 1
    1e60:	80 e0       	ldi	r24, 0x00	; 0
    1e62:	0e 94 86 04 	call	0x90c	; 0x90c <GPIO_writePin>
    1e66:	9e 01       	movw	r18, r28
    1e68:	2b 5a       	subi	r18, 0xAB	; 171
    1e6a:	3f 4f       	sbci	r19, 0xFF	; 255
    1e6c:	80 e0       	ldi	r24, 0x00	; 0
    1e6e:	90 e0       	ldi	r25, 0x00	; 0
    1e70:	a0 e8       	ldi	r26, 0x80	; 128
    1e72:	bf e3       	ldi	r27, 0x3F	; 63
    1e74:	f9 01       	movw	r30, r18
    1e76:	80 83       	st	Z, r24
    1e78:	91 83       	std	Z+1, r25	; 0x01
    1e7a:	a2 83       	std	Z+2, r26	; 0x02
    1e7c:	b3 83       	std	Z+3, r27	; 0x03

00001e7e <.LM156>:
    1e7e:	8e 01       	movw	r16, r28
    1e80:	07 5a       	subi	r16, 0xA7	; 167
    1e82:	1f 4f       	sbci	r17, 0xFF	; 255
    1e84:	ce 01       	movw	r24, r28
    1e86:	8b 5a       	subi	r24, 0xAB	; 171
    1e88:	9f 4f       	sbci	r25, 0xFF	; 255
    1e8a:	20 e0       	ldi	r18, 0x00	; 0
    1e8c:	30 e0       	ldi	r19, 0x00	; 0
    1e8e:	4a e7       	ldi	r20, 0x7A	; 122
    1e90:	55 e4       	ldi	r21, 0x45	; 69
    1e92:	dc 01       	movw	r26, r24
    1e94:	6d 91       	ld	r22, X+
    1e96:	7d 91       	ld	r23, X+
    1e98:	8d 91       	ld	r24, X+
    1e9a:	9c 91       	ld	r25, X
    1e9c:	0e 94 26 18 	call	0x304c	; 0x304c <__mulsf3>
    1ea0:	c0 58       	subi	r28, 0x80	; 128
    1ea2:	df 4f       	sbci	r29, 0xFF	; 255
    1ea4:	68 83       	st	Y, r22
    1ea6:	79 83       	std	Y+1, r23	; 0x01
    1ea8:	8a 83       	std	Y+2, r24	; 0x02
    1eaa:	9b 83       	std	Y+3, r25	; 0x03
    1eac:	c0 58       	subi	r28, 0x80	; 128
    1eae:	d0 40       	sbci	r29, 0x00	; 0
    1eb0:	c0 58       	subi	r28, 0x80	; 128
    1eb2:	df 4f       	sbci	r29, 0xFF	; 255
    1eb4:	28 81       	ld	r18, Y
    1eb6:	39 81       	ldd	r19, Y+1	; 0x01
    1eb8:	4a 81       	ldd	r20, Y+2	; 0x02
    1eba:	5b 81       	ldd	r21, Y+3	; 0x03
    1ebc:	c0 58       	subi	r28, 0x80	; 128
    1ebe:	d0 40       	sbci	r29, 0x00	; 0
    1ec0:	d8 01       	movw	r26, r16
    1ec2:	2d 93       	st	X+, r18
    1ec4:	3d 93       	st	X+, r19
    1ec6:	4d 93       	st	X+, r20
    1ec8:	5c 93       	st	X, r21
    1eca:	13 97       	sbiw	r26, 0x03	; 3

00001ecc <.LM157>:
    1ecc:	ce 01       	movw	r24, r28
    1ece:	87 5a       	subi	r24, 0xA7	; 167
    1ed0:	9f 4f       	sbci	r25, 0xFF	; 255
    1ed2:	20 e0       	ldi	r18, 0x00	; 0
    1ed4:	30 e0       	ldi	r19, 0x00	; 0
    1ed6:	40 e8       	ldi	r20, 0x80	; 128
    1ed8:	5f e3       	ldi	r21, 0x3F	; 63
    1eda:	fc 01       	movw	r30, r24
    1edc:	60 81       	ld	r22, Z
    1ede:	71 81       	ldd	r23, Z+1	; 0x01
    1ee0:	82 81       	ldd	r24, Z+2	; 0x02
    1ee2:	93 81       	ldd	r25, Z+3	; 0x03
    1ee4:	0e 94 c9 16 	call	0x2d92	; 0x2d92 <__cmpsf2>
    1ee8:	88 23       	and	r24, r24
    1eea:	4c f4       	brge	.+18     	; 0x1efe <.L170>

00001eec <.LM158>:
    1eec:	ce 01       	movw	r24, r28
    1eee:	83 5a       	subi	r24, 0xA3	; 163
    1ef0:	9f 4f       	sbci	r25, 0xFF	; 255
    1ef2:	21 e0       	ldi	r18, 0x01	; 1
    1ef4:	30 e0       	ldi	r19, 0x00	; 0
    1ef6:	dc 01       	movw	r26, r24
    1ef8:	2d 93       	st	X+, r18
    1efa:	3c 93       	st	X, r19
    1efc:	a2 c0       	rjmp	.+324    	; 0x2042 <.L102>

00001efe <.L170>:
    1efe:	ce 01       	movw	r24, r28
    1f00:	87 5a       	subi	r24, 0xA7	; 167
    1f02:	9f 4f       	sbci	r25, 0xFF	; 255
    1f04:	20 e0       	ldi	r18, 0x00	; 0
    1f06:	3f ef       	ldi	r19, 0xFF	; 255
    1f08:	4f e7       	ldi	r20, 0x7F	; 127
    1f0a:	57 e4       	ldi	r21, 0x47	; 71
    1f0c:	fc 01       	movw	r30, r24
    1f0e:	60 81       	ld	r22, Z
    1f10:	71 81       	ldd	r23, Z+1	; 0x01
    1f12:	82 81       	ldd	r24, Z+2	; 0x02
    1f14:	93 81       	ldd	r25, Z+3	; 0x03
    1f16:	0e 94 21 18 	call	0x3042	; 0x3042 <__gesf2>
    1f1a:	18 16       	cp	r1, r24
    1f1c:	0c f0       	brlt	.+2      	; 0x1f20 <.LM160>

00001f1e <L0^A>:
    1f1e:	73 c0       	rjmp	.+230    	; 0x2006 <.L171>

00001f20 <.LM160>:
    1f20:	ce 01       	movw	r24, r28
    1f22:	8b 5a       	subi	r24, 0xAB	; 171
    1f24:	9f 4f       	sbci	r25, 0xFF	; 255
    1f26:	20 e0       	ldi	r18, 0x00	; 0
    1f28:	30 e0       	ldi	r19, 0x00	; 0
    1f2a:	40 e2       	ldi	r20, 0x20	; 32
    1f2c:	51 e4       	ldi	r21, 0x41	; 65
    1f2e:	dc 01       	movw	r26, r24
    1f30:	6d 91       	ld	r22, X+
    1f32:	7d 91       	ld	r23, X+
    1f34:	8d 91       	ld	r24, X+
    1f36:	9c 91       	ld	r25, X
    1f38:	0e 94 26 18 	call	0x304c	; 0x304c <__mulsf3>
    1f3c:	cc 57       	subi	r28, 0x7C	; 124
    1f3e:	df 4f       	sbci	r29, 0xFF	; 255
    1f40:	68 83       	st	Y, r22
    1f42:	79 83       	std	Y+1, r23	; 0x01
    1f44:	8a 83       	std	Y+2, r24	; 0x02
    1f46:	9b 83       	std	Y+3, r25	; 0x03
    1f48:	c4 58       	subi	r28, 0x84	; 132
    1f4a:	d0 40       	sbci	r29, 0x00	; 0
    1f4c:	cc 57       	subi	r28, 0x7C	; 124
    1f4e:	df 4f       	sbci	r29, 0xFF	; 255
    1f50:	28 81       	ld	r18, Y
    1f52:	39 81       	ldd	r19, Y+1	; 0x01
    1f54:	4a 81       	ldd	r20, Y+2	; 0x02
    1f56:	5b 81       	ldd	r21, Y+3	; 0x03
    1f58:	c4 58       	subi	r28, 0x84	; 132
    1f5a:	d0 40       	sbci	r29, 0x00	; 0
    1f5c:	c4 58       	subi	r28, 0x84	; 132
    1f5e:	df 4f       	sbci	r29, 0xFF	; 255
    1f60:	28 83       	st	Y, r18
    1f62:	39 83       	std	Y+1, r19	; 0x01
    1f64:	4a 83       	std	Y+2, r20	; 0x02
    1f66:	5b 83       	std	Y+3, r21	; 0x03
    1f68:	cc 57       	subi	r28, 0x7C	; 124
    1f6a:	d0 40       	sbci	r29, 0x00	; 0

00001f6c <.LM161>:
    1f6c:	8e 01       	movw	r16, r28
    1f6e:	03 5a       	subi	r16, 0xA3	; 163
    1f70:	1f 4f       	sbci	r17, 0xFF	; 255
    1f72:	c4 58       	subi	r28, 0x84	; 132
    1f74:	df 4f       	sbci	r29, 0xFF	; 255
    1f76:	68 81       	ld	r22, Y
    1f78:	79 81       	ldd	r23, Y+1	; 0x01
    1f7a:	8a 81       	ldd	r24, Y+2	; 0x02
    1f7c:	9b 81       	ldd	r25, Y+3	; 0x03
    1f7e:	cc 57       	subi	r28, 0x7C	; 124
    1f80:	d0 40       	sbci	r29, 0x00	; 0
    1f82:	0e 94 40 17 	call	0x2e80	; 0x2e80 <__fixunssfsi>
    1f86:	c8 57       	subi	r28, 0x78	; 120
    1f88:	df 4f       	sbci	r29, 0xFF	; 255
    1f8a:	68 83       	st	Y, r22
    1f8c:	79 83       	std	Y+1, r23	; 0x01
    1f8e:	8a 83       	std	Y+2, r24	; 0x02
    1f90:	9b 83       	std	Y+3, r25	; 0x03
    1f92:	c8 58       	subi	r28, 0x88	; 136
    1f94:	d0 40       	sbci	r29, 0x00	; 0
    1f96:	c8 57       	subi	r28, 0x78	; 120
    1f98:	df 4f       	sbci	r29, 0xFF	; 255
    1f9a:	e8 81       	ld	r30, Y
    1f9c:	f9 81       	ldd	r31, Y+1	; 0x01
    1f9e:	c8 58       	subi	r28, 0x88	; 136
    1fa0:	d0 40       	sbci	r29, 0x00	; 0
    1fa2:	d8 01       	movw	r26, r16
    1fa4:	ed 93       	st	X+, r30
    1fa6:	fc 93       	st	X, r31

00001fa8 <.LM162>:
    1fa8:	25 c0       	rjmp	.+74     	; 0x1ff4 <.L105>

00001faa <.L106>:
    1faa:	ce 01       	movw	r24, r28
    1fac:	81 5a       	subi	r24, 0xA1	; 161
    1fae:	9f 4f       	sbci	r25, 0xFF	; 255
    1fb0:	20 e9       	ldi	r18, 0x90	; 144
    1fb2:	31 e0       	ldi	r19, 0x01	; 1
    1fb4:	dc 01       	movw	r26, r24
    1fb6:	2d 93       	st	X+, r18
    1fb8:	3c 93       	st	X, r19

00001fba <.LM163>:
    1fba:	ce 01       	movw	r24, r28
    1fbc:	81 5a       	subi	r24, 0xA1	; 161
    1fbe:	9f 4f       	sbci	r25, 0xFF	; 255
    1fc0:	fc 01       	movw	r30, r24
    1fc2:	80 81       	ld	r24, Z
    1fc4:	91 81       	ldd	r25, Z+1	; 0x01

00001fc6 <.L1^B17>:
    1fc6:	01 97       	sbiw	r24, 0x01	; 1
    1fc8:	f1 f7       	brne	.-4      	; 0x1fc6 <.L1^B17>
    1fca:	9e 01       	movw	r18, r28
    1fcc:	21 5a       	subi	r18, 0xA1	; 161
    1fce:	3f 4f       	sbci	r19, 0xFF	; 255
    1fd0:	d9 01       	movw	r26, r18
    1fd2:	8d 93       	st	X+, r24
    1fd4:	9c 93       	st	X, r25

00001fd6 <.LM164>:
	...

00001fd8 <.LM165>:
    1fd8:	ce 01       	movw	r24, r28
    1fda:	83 5a       	subi	r24, 0xA3	; 163
    1fdc:	9f 4f       	sbci	r25, 0xFF	; 255
    1fde:	9e 01       	movw	r18, r28
    1fe0:	23 5a       	subi	r18, 0xA3	; 163
    1fe2:	3f 4f       	sbci	r19, 0xFF	; 255
    1fe4:	f9 01       	movw	r30, r18
    1fe6:	20 81       	ld	r18, Z
    1fe8:	31 81       	ldd	r19, Z+1	; 0x01
    1fea:	21 50       	subi	r18, 0x01	; 1
    1fec:	31 09       	sbc	r19, r1
    1fee:	dc 01       	movw	r26, r24
    1ff0:	2d 93       	st	X+, r18
    1ff2:	3c 93       	st	X, r19

00001ff4 <.L105>:
    1ff4:	ce 01       	movw	r24, r28
    1ff6:	83 5a       	subi	r24, 0xA3	; 163
    1ff8:	9f 4f       	sbci	r25, 0xFF	; 255
    1ffa:	fc 01       	movw	r30, r24
    1ffc:	80 81       	ld	r24, Z
    1ffe:	91 81       	ldd	r25, Z+1	; 0x01
    2000:	89 2b       	or	r24, r25
    2002:	99 f6       	brne	.-90     	; 0x1faa <.L106>

00002004 <.LM167>:
    2004:	39 c0       	rjmp	.+114    	; 0x2078 <.L107>

00002006 <.L171>:
    2006:	8e 01       	movw	r16, r28
    2008:	03 5a       	subi	r16, 0xA3	; 163
    200a:	1f 4f       	sbci	r17, 0xFF	; 255
    200c:	ce 01       	movw	r24, r28
    200e:	87 5a       	subi	r24, 0xA7	; 167
    2010:	9f 4f       	sbci	r25, 0xFF	; 255
    2012:	dc 01       	movw	r26, r24
    2014:	6d 91       	ld	r22, X+
    2016:	7d 91       	ld	r23, X+
    2018:	8d 91       	ld	r24, X+
    201a:	9c 91       	ld	r25, X
    201c:	0e 94 40 17 	call	0x2e80	; 0x2e80 <__fixunssfsi>
    2020:	c4 57       	subi	r28, 0x74	; 116
    2022:	df 4f       	sbci	r29, 0xFF	; 255
    2024:	68 83       	st	Y, r22
    2026:	79 83       	std	Y+1, r23	; 0x01
    2028:	8a 83       	std	Y+2, r24	; 0x02
    202a:	9b 83       	std	Y+3, r25	; 0x03
    202c:	cc 58       	subi	r28, 0x8C	; 140
    202e:	d0 40       	sbci	r29, 0x00	; 0
    2030:	c4 57       	subi	r28, 0x74	; 116
    2032:	df 4f       	sbci	r29, 0xFF	; 255
    2034:	28 81       	ld	r18, Y
    2036:	39 81       	ldd	r19, Y+1	; 0x01
    2038:	cc 58       	subi	r28, 0x8C	; 140
    203a:	d0 40       	sbci	r29, 0x00	; 0
    203c:	f8 01       	movw	r30, r16
    203e:	31 83       	std	Z+1, r19	; 0x01
    2040:	20 83       	st	Z, r18

00002042 <.L102>:
    2042:	ce 01       	movw	r24, r28
    2044:	8f 59       	subi	r24, 0x9F	; 159
    2046:	9f 4f       	sbci	r25, 0xFF	; 255
    2048:	9e 01       	movw	r18, r28
    204a:	23 5a       	subi	r18, 0xA3	; 163
    204c:	3f 4f       	sbci	r19, 0xFF	; 255
    204e:	d9 01       	movw	r26, r18
    2050:	2d 91       	ld	r18, X+
    2052:	3c 91       	ld	r19, X
    2054:	fc 01       	movw	r30, r24
    2056:	31 83       	std	Z+1, r19	; 0x01
    2058:	20 83       	st	Z, r18

0000205a <.LM169>:
    205a:	ce 01       	movw	r24, r28
    205c:	8f 59       	subi	r24, 0x9F	; 159
    205e:	9f 4f       	sbci	r25, 0xFF	; 255
    2060:	dc 01       	movw	r26, r24
    2062:	8d 91       	ld	r24, X+
    2064:	9c 91       	ld	r25, X

00002066 <.L1^B18>:
    2066:	01 97       	sbiw	r24, 0x01	; 1
    2068:	f1 f7       	brne	.-4      	; 0x2066 <.L1^B18>
    206a:	9e 01       	movw	r18, r28
    206c:	2f 59       	subi	r18, 0x9F	; 159
    206e:	3f 4f       	sbci	r19, 0xFF	; 255
    2070:	f9 01       	movw	r30, r18
    2072:	91 83       	std	Z+1, r25	; 0x01
    2074:	80 83       	st	Z, r24

00002076 <.LM170>:
	...

00002078 <.L107>:
    2078:	41 e0       	ldi	r20, 0x01	; 1
    207a:	62 e0       	ldi	r22, 0x02	; 2
    207c:	80 e0       	ldi	r24, 0x00	; 0
    207e:	0e 94 86 04 	call	0x90c	; 0x90c <GPIO_writePin>
    2082:	9e 01       	movw	r18, r28
    2084:	29 5b       	subi	r18, 0xB9	; 185
    2086:	3f 4f       	sbci	r19, 0xFF	; 255
    2088:	80 e0       	ldi	r24, 0x00	; 0
    208a:	90 e0       	ldi	r25, 0x00	; 0
    208c:	a0 e8       	ldi	r26, 0x80	; 128
    208e:	bf e3       	ldi	r27, 0x3F	; 63
    2090:	f9 01       	movw	r30, r18
    2092:	80 83       	st	Z, r24
    2094:	91 83       	std	Z+1, r25	; 0x01
    2096:	a2 83       	std	Z+2, r26	; 0x02
    2098:	b3 83       	std	Z+3, r27	; 0x03

0000209a <.LM172>:
    209a:	8e 01       	movw	r16, r28
    209c:	05 5b       	subi	r16, 0xB5	; 181
    209e:	1f 4f       	sbci	r17, 0xFF	; 255
    20a0:	ce 01       	movw	r24, r28
    20a2:	89 5b       	subi	r24, 0xB9	; 185
    20a4:	9f 4f       	sbci	r25, 0xFF	; 255
    20a6:	20 e0       	ldi	r18, 0x00	; 0
    20a8:	30 e0       	ldi	r19, 0x00	; 0
    20aa:	4a e7       	ldi	r20, 0x7A	; 122
    20ac:	55 e4       	ldi	r21, 0x45	; 69
    20ae:	dc 01       	movw	r26, r24
    20b0:	6d 91       	ld	r22, X+
    20b2:	7d 91       	ld	r23, X+
    20b4:	8d 91       	ld	r24, X+
    20b6:	9c 91       	ld	r25, X
    20b8:	0e 94 26 18 	call	0x304c	; 0x304c <__mulsf3>
    20bc:	c0 57       	subi	r28, 0x70	; 112
    20be:	df 4f       	sbci	r29, 0xFF	; 255
    20c0:	68 83       	st	Y, r22
    20c2:	79 83       	std	Y+1, r23	; 0x01
    20c4:	8a 83       	std	Y+2, r24	; 0x02
    20c6:	9b 83       	std	Y+3, r25	; 0x03
    20c8:	c0 59       	subi	r28, 0x90	; 144
    20ca:	d0 40       	sbci	r29, 0x00	; 0
    20cc:	c0 57       	subi	r28, 0x70	; 112
    20ce:	df 4f       	sbci	r29, 0xFF	; 255
    20d0:	28 81       	ld	r18, Y
    20d2:	39 81       	ldd	r19, Y+1	; 0x01
    20d4:	4a 81       	ldd	r20, Y+2	; 0x02
    20d6:	5b 81       	ldd	r21, Y+3	; 0x03
    20d8:	c0 59       	subi	r28, 0x90	; 144
    20da:	d0 40       	sbci	r29, 0x00	; 0
    20dc:	d8 01       	movw	r26, r16
    20de:	2d 93       	st	X+, r18
    20e0:	3d 93       	st	X+, r19
    20e2:	4d 93       	st	X+, r20
    20e4:	5c 93       	st	X, r21
    20e6:	13 97       	sbiw	r26, 0x03	; 3

000020e8 <.LM173>:
    20e8:	ce 01       	movw	r24, r28
    20ea:	85 5b       	subi	r24, 0xB5	; 181
    20ec:	9f 4f       	sbci	r25, 0xFF	; 255
    20ee:	20 e0       	ldi	r18, 0x00	; 0
    20f0:	30 e0       	ldi	r19, 0x00	; 0
    20f2:	40 e8       	ldi	r20, 0x80	; 128
    20f4:	5f e3       	ldi	r21, 0x3F	; 63
    20f6:	fc 01       	movw	r30, r24
    20f8:	60 81       	ld	r22, Z
    20fa:	71 81       	ldd	r23, Z+1	; 0x01
    20fc:	82 81       	ldd	r24, Z+2	; 0x02
    20fe:	93 81       	ldd	r25, Z+3	; 0x03
    2100:	0e 94 c9 16 	call	0x2d92	; 0x2d92 <__cmpsf2>
    2104:	88 23       	and	r24, r24
    2106:	4c f4       	brge	.+18     	; 0x211a <.L172>

00002108 <.LM174>:
    2108:	ce 01       	movw	r24, r28
    210a:	81 5b       	subi	r24, 0xB1	; 177
    210c:	9f 4f       	sbci	r25, 0xFF	; 255
    210e:	21 e0       	ldi	r18, 0x01	; 1
    2110:	30 e0       	ldi	r19, 0x00	; 0
    2112:	dc 01       	movw	r26, r24
    2114:	2d 93       	st	X+, r18
    2116:	3c 93       	st	X, r19
    2118:	9e c0       	rjmp	.+316    	; 0x2256 <.L110>

0000211a <.L172>:
    211a:	ce 01       	movw	r24, r28
    211c:	85 5b       	subi	r24, 0xB5	; 181
    211e:	9f 4f       	sbci	r25, 0xFF	; 255
    2120:	20 e0       	ldi	r18, 0x00	; 0
    2122:	3f ef       	ldi	r19, 0xFF	; 255
    2124:	4f e7       	ldi	r20, 0x7F	; 127
    2126:	57 e4       	ldi	r21, 0x47	; 71
    2128:	fc 01       	movw	r30, r24
    212a:	60 81       	ld	r22, Z
    212c:	71 81       	ldd	r23, Z+1	; 0x01
    212e:	82 81       	ldd	r24, Z+2	; 0x02
    2130:	93 81       	ldd	r25, Z+3	; 0x03
    2132:	0e 94 21 18 	call	0x3042	; 0x3042 <__gesf2>
    2136:	18 16       	cp	r1, r24
    2138:	0c f0       	brlt	.+2      	; 0x213c <.LM176>

0000213a <L0^A>:
    213a:	6f c0       	rjmp	.+222    	; 0x221a <.L173>

0000213c <.LM176>:
    213c:	ce 01       	movw	r24, r28
    213e:	89 5b       	subi	r24, 0xB9	; 185
    2140:	9f 4f       	sbci	r25, 0xFF	; 255
    2142:	20 e0       	ldi	r18, 0x00	; 0
    2144:	30 e0       	ldi	r19, 0x00	; 0
    2146:	40 e2       	ldi	r20, 0x20	; 32
    2148:	51 e4       	ldi	r21, 0x41	; 65
    214a:	dc 01       	movw	r26, r24
    214c:	6d 91       	ld	r22, X+
    214e:	7d 91       	ld	r23, X+
    2150:	8d 91       	ld	r24, X+
    2152:	9c 91       	ld	r25, X
    2154:	0e 94 26 18 	call	0x304c	; 0x304c <__mulsf3>
    2158:	cc 56       	subi	r28, 0x6C	; 108
    215a:	df 4f       	sbci	r29, 0xFF	; 255
    215c:	68 83       	st	Y, r22
    215e:	79 83       	std	Y+1, r23	; 0x01
    2160:	8a 83       	std	Y+2, r24	; 0x02
    2162:	9b 83       	std	Y+3, r25	; 0x03
    2164:	c4 59       	subi	r28, 0x94	; 148
    2166:	d0 40       	sbci	r29, 0x00	; 0
    2168:	cc 56       	subi	r28, 0x6C	; 108
    216a:	df 4f       	sbci	r29, 0xFF	; 255
    216c:	28 81       	ld	r18, Y
    216e:	39 81       	ldd	r19, Y+1	; 0x01
    2170:	4a 81       	ldd	r20, Y+2	; 0x02
    2172:	5b 81       	ldd	r21, Y+3	; 0x03
    2174:	c4 59       	subi	r28, 0x94	; 148
    2176:	d0 40       	sbci	r29, 0x00	; 0
    2178:	ec 96       	adiw	r28, 0x3c	; 60
    217a:	2c af       	std	Y+60, r18	; 0x3c
    217c:	3d af       	std	Y+61, r19	; 0x3d
    217e:	4e af       	std	Y+62, r20	; 0x3e
    2180:	5f af       	std	Y+63, r21	; 0x3f
    2182:	ec 97       	sbiw	r28, 0x3c	; 60

00002184 <.LM177>:
    2184:	8e 01       	movw	r16, r28
    2186:	01 5b       	subi	r16, 0xB1	; 177
    2188:	1f 4f       	sbci	r17, 0xFF	; 255
    218a:	ec 96       	adiw	r28, 0x3c	; 60
    218c:	6c ad       	ldd	r22, Y+60	; 0x3c
    218e:	7d ad       	ldd	r23, Y+61	; 0x3d
    2190:	8e ad       	ldd	r24, Y+62	; 0x3e
    2192:	9f ad       	ldd	r25, Y+63	; 0x3f
    2194:	ec 97       	sbiw	r28, 0x3c	; 60
    2196:	0e 94 40 17 	call	0x2e80	; 0x2e80 <__fixunssfsi>
    219a:	c8 56       	subi	r28, 0x68	; 104
    219c:	df 4f       	sbci	r29, 0xFF	; 255
    219e:	68 83       	st	Y, r22
    21a0:	79 83       	std	Y+1, r23	; 0x01
    21a2:	8a 83       	std	Y+2, r24	; 0x02
    21a4:	9b 83       	std	Y+3, r25	; 0x03
    21a6:	c8 59       	subi	r28, 0x98	; 152
    21a8:	d0 40       	sbci	r29, 0x00	; 0
    21aa:	c8 56       	subi	r28, 0x68	; 104
    21ac:	df 4f       	sbci	r29, 0xFF	; 255
    21ae:	e8 81       	ld	r30, Y
    21b0:	f9 81       	ldd	r31, Y+1	; 0x01
    21b2:	c8 59       	subi	r28, 0x98	; 152
    21b4:	d0 40       	sbci	r29, 0x00	; 0
    21b6:	d8 01       	movw	r26, r16
    21b8:	ed 93       	st	X+, r30
    21ba:	fc 93       	st	X, r31

000021bc <.LM178>:
    21bc:	25 c0       	rjmp	.+74     	; 0x2208 <.L113>

000021be <.L114>:
    21be:	ce 01       	movw	r24, r28
    21c0:	8f 5a       	subi	r24, 0xAF	; 175
    21c2:	9f 4f       	sbci	r25, 0xFF	; 255
    21c4:	20 e9       	ldi	r18, 0x90	; 144
    21c6:	31 e0       	ldi	r19, 0x01	; 1
    21c8:	dc 01       	movw	r26, r24
    21ca:	2d 93       	st	X+, r18
    21cc:	3c 93       	st	X, r19

000021ce <.LM179>:
    21ce:	ce 01       	movw	r24, r28
    21d0:	8f 5a       	subi	r24, 0xAF	; 175
    21d2:	9f 4f       	sbci	r25, 0xFF	; 255
    21d4:	fc 01       	movw	r30, r24
    21d6:	80 81       	ld	r24, Z
    21d8:	91 81       	ldd	r25, Z+1	; 0x01

000021da <.L1^B19>:
    21da:	01 97       	sbiw	r24, 0x01	; 1
    21dc:	f1 f7       	brne	.-4      	; 0x21da <.L1^B19>
    21de:	9e 01       	movw	r18, r28
    21e0:	2f 5a       	subi	r18, 0xAF	; 175
    21e2:	3f 4f       	sbci	r19, 0xFF	; 255
    21e4:	d9 01       	movw	r26, r18
    21e6:	8d 93       	st	X+, r24
    21e8:	9c 93       	st	X, r25

000021ea <.LM180>:
	...

000021ec <.LM181>:
    21ec:	ce 01       	movw	r24, r28
    21ee:	81 5b       	subi	r24, 0xB1	; 177
    21f0:	9f 4f       	sbci	r25, 0xFF	; 255
    21f2:	9e 01       	movw	r18, r28
    21f4:	21 5b       	subi	r18, 0xB1	; 177
    21f6:	3f 4f       	sbci	r19, 0xFF	; 255
    21f8:	f9 01       	movw	r30, r18
    21fa:	20 81       	ld	r18, Z
    21fc:	31 81       	ldd	r19, Z+1	; 0x01
    21fe:	21 50       	subi	r18, 0x01	; 1
    2200:	31 09       	sbc	r19, r1
    2202:	dc 01       	movw	r26, r24
    2204:	2d 93       	st	X+, r18
    2206:	3c 93       	st	X, r19

00002208 <.L113>:
    2208:	ce 01       	movw	r24, r28
    220a:	81 5b       	subi	r24, 0xB1	; 177
    220c:	9f 4f       	sbci	r25, 0xFF	; 255
    220e:	fc 01       	movw	r30, r24
    2210:	80 81       	ld	r24, Z
    2212:	91 81       	ldd	r25, Z+1	; 0x01
    2214:	89 2b       	or	r24, r25
    2216:	99 f6       	brne	.-90     	; 0x21be <.L114>

00002218 <.LM183>:
    2218:	39 c0       	rjmp	.+114    	; 0x228c <.L115>

0000221a <.L173>:
    221a:	8e 01       	movw	r16, r28
    221c:	01 5b       	subi	r16, 0xB1	; 177
    221e:	1f 4f       	sbci	r17, 0xFF	; 255
    2220:	ce 01       	movw	r24, r28
    2222:	85 5b       	subi	r24, 0xB5	; 181
    2224:	9f 4f       	sbci	r25, 0xFF	; 255
    2226:	dc 01       	movw	r26, r24
    2228:	6d 91       	ld	r22, X+
    222a:	7d 91       	ld	r23, X+
    222c:	8d 91       	ld	r24, X+
    222e:	9c 91       	ld	r25, X
    2230:	0e 94 40 17 	call	0x2e80	; 0x2e80 <__fixunssfsi>
    2234:	c4 56       	subi	r28, 0x64	; 100
    2236:	df 4f       	sbci	r29, 0xFF	; 255
    2238:	68 83       	st	Y, r22
    223a:	79 83       	std	Y+1, r23	; 0x01
    223c:	8a 83       	std	Y+2, r24	; 0x02
    223e:	9b 83       	std	Y+3, r25	; 0x03
    2240:	cc 59       	subi	r28, 0x9C	; 156
    2242:	d0 40       	sbci	r29, 0x00	; 0
    2244:	c4 56       	subi	r28, 0x64	; 100
    2246:	df 4f       	sbci	r29, 0xFF	; 255
    2248:	28 81       	ld	r18, Y
    224a:	39 81       	ldd	r19, Y+1	; 0x01
    224c:	cc 59       	subi	r28, 0x9C	; 156
    224e:	d0 40       	sbci	r29, 0x00	; 0
    2250:	f8 01       	movw	r30, r16
    2252:	31 83       	std	Z+1, r19	; 0x01
    2254:	20 83       	st	Z, r18

00002256 <.L110>:
    2256:	ce 01       	movw	r24, r28
    2258:	8d 5a       	subi	r24, 0xAD	; 173
    225a:	9f 4f       	sbci	r25, 0xFF	; 255
    225c:	9e 01       	movw	r18, r28
    225e:	21 5b       	subi	r18, 0xB1	; 177
    2260:	3f 4f       	sbci	r19, 0xFF	; 255
    2262:	d9 01       	movw	r26, r18
    2264:	2d 91       	ld	r18, X+
    2266:	3c 91       	ld	r19, X
    2268:	fc 01       	movw	r30, r24
    226a:	31 83       	std	Z+1, r19	; 0x01
    226c:	20 83       	st	Z, r18

0000226e <.LM185>:
    226e:	ce 01       	movw	r24, r28
    2270:	8d 5a       	subi	r24, 0xAD	; 173
    2272:	9f 4f       	sbci	r25, 0xFF	; 255
    2274:	dc 01       	movw	r26, r24
    2276:	8d 91       	ld	r24, X+
    2278:	9c 91       	ld	r25, X

0000227a <.L1^B20>:
    227a:	01 97       	sbiw	r24, 0x01	; 1
    227c:	f1 f7       	brne	.-4      	; 0x227a <.L1^B20>
    227e:	9e 01       	movw	r18, r28
    2280:	2d 5a       	subi	r18, 0xAD	; 173
    2282:	3f 4f       	sbci	r19, 0xFF	; 255
    2284:	f9 01       	movw	r30, r18
    2286:	91 83       	std	Z+1, r25	; 0x01
    2288:	80 83       	st	Z, r24

0000228a <.LM186>:
	...

0000228c <.L115>:
    228c:	ce 01       	movw	r24, r28
    228e:	8d 59       	subi	r24, 0x9D	; 157
    2290:	9f 4f       	sbci	r25, 0xFF	; 255
    2292:	dc 01       	movw	r26, r24
    2294:	8c 91       	ld	r24, X
    2296:	88 2f       	mov	r24, r24
    2298:	90 e0       	ldi	r25, 0x00	; 0
    229a:	95 95       	asr	r25
    229c:	87 95       	ror	r24
    229e:	95 95       	asr	r25
    22a0:	87 95       	ror	r24
    22a2:	95 95       	asr	r25
    22a4:	87 95       	ror	r24
    22a6:	95 95       	asr	r25
    22a8:	87 95       	ror	r24

000022aa <.LM188>:
    22aa:	81 70       	andi	r24, 0x01	; 1
    22ac:	48 2f       	mov	r20, r24
    22ae:	63 e0       	ldi	r22, 0x03	; 3
    22b0:	80 e0       	ldi	r24, 0x00	; 0
    22b2:	0e 94 86 04 	call	0x90c	; 0x90c <GPIO_writePin>

000022b6 <.LM189>:
    22b6:	ce 01       	movw	r24, r28
    22b8:	8d 59       	subi	r24, 0x9D	; 157
    22ba:	9f 4f       	sbci	r25, 0xFF	; 255
    22bc:	fc 01       	movw	r30, r24
    22be:	80 81       	ld	r24, Z
    22c0:	88 2f       	mov	r24, r24
    22c2:	90 e0       	ldi	r25, 0x00	; 0
    22c4:	95 95       	asr	r25
    22c6:	87 95       	ror	r24
    22c8:	95 95       	asr	r25
    22ca:	87 95       	ror	r24
    22cc:	95 95       	asr	r25
    22ce:	87 95       	ror	r24
    22d0:	95 95       	asr	r25
    22d2:	87 95       	ror	r24
    22d4:	95 95       	asr	r25
    22d6:	87 95       	ror	r24

000022d8 <.LM190>:
    22d8:	81 70       	andi	r24, 0x01	; 1
    22da:	48 2f       	mov	r20, r24
    22dc:	64 e0       	ldi	r22, 0x04	; 4
    22de:	80 e0       	ldi	r24, 0x00	; 0
    22e0:	0e 94 86 04 	call	0x90c	; 0x90c <GPIO_writePin>

000022e4 <.LM191>:
    22e4:	ce 01       	movw	r24, r28
    22e6:	8d 59       	subi	r24, 0x9D	; 157
    22e8:	9f 4f       	sbci	r25, 0xFF	; 255
    22ea:	dc 01       	movw	r26, r24
    22ec:	8c 91       	ld	r24, X
    22ee:	88 2f       	mov	r24, r24
    22f0:	90 e0       	ldi	r25, 0x00	; 0
    22f2:	08 2e       	mov	r0, r24
    22f4:	89 2f       	mov	r24, r25
    22f6:	00 0c       	add	r0, r0
    22f8:	88 1f       	adc	r24, r24
    22fa:	99 0b       	sbc	r25, r25
    22fc:	00 0c       	add	r0, r0
    22fe:	88 1f       	adc	r24, r24
    2300:	99 1f       	adc	r25, r25

00002302 <.LM192>:
    2302:	81 70       	andi	r24, 0x01	; 1
    2304:	48 2f       	mov	r20, r24
    2306:	65 e0       	ldi	r22, 0x05	; 5
    2308:	80 e0       	ldi	r24, 0x00	; 0
    230a:	0e 94 86 04 	call	0x90c	; 0x90c <GPIO_writePin>

0000230e <.LM193>:
    230e:	ce 01       	movw	r24, r28
    2310:	8d 59       	subi	r24, 0x9D	; 157
    2312:	9f 4f       	sbci	r25, 0xFF	; 255
    2314:	fc 01       	movw	r30, r24
    2316:	80 81       	ld	r24, Z
    2318:	88 1f       	adc	r24, r24
    231a:	88 27       	eor	r24, r24
    231c:	88 1f       	adc	r24, r24
    231e:	48 2f       	mov	r20, r24
    2320:	66 e0       	ldi	r22, 0x06	; 6
    2322:	80 e0       	ldi	r24, 0x00	; 0
    2324:	0e 94 86 04 	call	0x90c	; 0x90c <GPIO_writePin>
    2328:	80 e0       	ldi	r24, 0x00	; 0
    232a:	90 e0       	ldi	r25, 0x00	; 0
    232c:	a0 e8       	ldi	r26, 0x80	; 128
    232e:	bf e3       	ldi	r27, 0x3F	; 63
    2330:	89 af       	std	Y+57, r24	; 0x39
    2332:	9a af       	std	Y+58, r25	; 0x3a
    2334:	ab af       	std	Y+59, r26	; 0x3b
    2336:	bc af       	std	Y+60, r27	; 0x3c

00002338 <.LM194>:
    2338:	20 e0       	ldi	r18, 0x00	; 0
    233a:	30 e0       	ldi	r19, 0x00	; 0
    233c:	4a e7       	ldi	r20, 0x7A	; 122
    233e:	55 e4       	ldi	r21, 0x45	; 69
    2340:	69 ad       	ldd	r22, Y+57	; 0x39
    2342:	7a ad       	ldd	r23, Y+58	; 0x3a
    2344:	8b ad       	ldd	r24, Y+59	; 0x3b
    2346:	9c ad       	ldd	r25, Y+60	; 0x3c
    2348:	0e 94 26 18 	call	0x304c	; 0x304c <__mulsf3>
    234c:	c0 56       	subi	r28, 0x60	; 96
    234e:	df 4f       	sbci	r29, 0xFF	; 255
    2350:	68 83       	st	Y, r22
    2352:	79 83       	std	Y+1, r23	; 0x01
    2354:	8a 83       	std	Y+2, r24	; 0x02
    2356:	9b 83       	std	Y+3, r25	; 0x03
    2358:	c0 5a       	subi	r28, 0xA0	; 160
    235a:	d0 40       	sbci	r29, 0x00	; 0
    235c:	ce 01       	movw	r24, r28
    235e:	cd 96       	adiw	r24, 0x3d	; 61
    2360:	c0 56       	subi	r28, 0x60	; 96
    2362:	df 4f       	sbci	r29, 0xFF	; 255
    2364:	28 81       	ld	r18, Y
    2366:	39 81       	ldd	r19, Y+1	; 0x01
    2368:	4a 81       	ldd	r20, Y+2	; 0x02
    236a:	5b 81       	ldd	r21, Y+3	; 0x03
    236c:	c0 5a       	subi	r28, 0xA0	; 160
    236e:	d0 40       	sbci	r29, 0x00	; 0
    2370:	dc 01       	movw	r26, r24
    2372:	2d 93       	st	X+, r18
    2374:	3d 93       	st	X+, r19
    2376:	4d 93       	st	X+, r20
    2378:	5c 93       	st	X, r21
    237a:	13 97       	sbiw	r26, 0x03	; 3

0000237c <.LM195>:
    237c:	20 e0       	ldi	r18, 0x00	; 0
    237e:	30 e0       	ldi	r19, 0x00	; 0
    2380:	40 e8       	ldi	r20, 0x80	; 128
    2382:	5f e3       	ldi	r21, 0x3F	; 63
    2384:	ce 01       	movw	r24, r28
    2386:	cd 96       	adiw	r24, 0x3d	; 61
    2388:	fc 01       	movw	r30, r24
    238a:	60 81       	ld	r22, Z
    238c:	71 81       	ldd	r23, Z+1	; 0x01
    238e:	82 81       	ldd	r24, Z+2	; 0x02
    2390:	93 81       	ldd	r25, Z+3	; 0x03
    2392:	0e 94 c9 16 	call	0x2d92	; 0x2d92 <__cmpsf2>
    2396:	88 23       	and	r24, r24
    2398:	4c f4       	brge	.+18     	; 0x23ac <.L174>

0000239a <.LM196>:
    239a:	ce 01       	movw	r24, r28
    239c:	8f 5b       	subi	r24, 0xBF	; 191
    239e:	9f 4f       	sbci	r25, 0xFF	; 255
    23a0:	21 e0       	ldi	r18, 0x01	; 1
    23a2:	30 e0       	ldi	r19, 0x00	; 0
    23a4:	dc 01       	movw	r26, r24
    23a6:	2d 93       	st	X+, r18
    23a8:	3c 93       	st	X, r19
    23aa:	98 c0       	rjmp	.+304    	; 0x24dc <.L118>

000023ac <.L174>:
    23ac:	20 e0       	ldi	r18, 0x00	; 0
    23ae:	3f ef       	ldi	r19, 0xFF	; 255
    23b0:	4f e7       	ldi	r20, 0x7F	; 127
    23b2:	57 e4       	ldi	r21, 0x47	; 71
    23b4:	ce 01       	movw	r24, r28
    23b6:	cd 96       	adiw	r24, 0x3d	; 61
    23b8:	fc 01       	movw	r30, r24
    23ba:	60 81       	ld	r22, Z
    23bc:	71 81       	ldd	r23, Z+1	; 0x01
    23be:	82 81       	ldd	r24, Z+2	; 0x02
    23c0:	93 81       	ldd	r25, Z+3	; 0x03
    23c2:	0e 94 21 18 	call	0x3042	; 0x3042 <__gesf2>
    23c6:	18 16       	cp	r1, r24
    23c8:	0c f0       	brlt	.+2      	; 0x23cc <.LM198>

000023ca <L0^A>:
    23ca:	6b c0       	rjmp	.+214    	; 0x24a2 <.L175>

000023cc <.LM198>:
    23cc:	20 e0       	ldi	r18, 0x00	; 0
    23ce:	30 e0       	ldi	r19, 0x00	; 0
    23d0:	40 e2       	ldi	r20, 0x20	; 32
    23d2:	51 e4       	ldi	r21, 0x41	; 65
    23d4:	69 ad       	ldd	r22, Y+57	; 0x39
    23d6:	7a ad       	ldd	r23, Y+58	; 0x3a
    23d8:	8b ad       	ldd	r24, Y+59	; 0x3b
    23da:	9c ad       	ldd	r25, Y+60	; 0x3c
    23dc:	0e 94 26 18 	call	0x304c	; 0x304c <__mulsf3>
    23e0:	cc 55       	subi	r28, 0x5C	; 92
    23e2:	df 4f       	sbci	r29, 0xFF	; 255
    23e4:	68 83       	st	Y, r22
    23e6:	79 83       	std	Y+1, r23	; 0x01
    23e8:	8a 83       	std	Y+2, r24	; 0x02
    23ea:	9b 83       	std	Y+3, r25	; 0x03
    23ec:	c4 5a       	subi	r28, 0xA4	; 164
    23ee:	d0 40       	sbci	r29, 0x00	; 0
    23f0:	cc 55       	subi	r28, 0x5C	; 92
    23f2:	df 4f       	sbci	r29, 0xFF	; 255
    23f4:	28 81       	ld	r18, Y
    23f6:	39 81       	ldd	r19, Y+1	; 0x01
    23f8:	4a 81       	ldd	r20, Y+2	; 0x02
    23fa:	5b 81       	ldd	r21, Y+3	; 0x03
    23fc:	c4 5a       	subi	r28, 0xA4	; 164
    23fe:	d0 40       	sbci	r29, 0x00	; 0
    2400:	e8 96       	adiw	r28, 0x38	; 56
    2402:	2c af       	std	Y+60, r18	; 0x3c
    2404:	3d af       	std	Y+61, r19	; 0x3d
    2406:	4e af       	std	Y+62, r20	; 0x3e
    2408:	5f af       	std	Y+63, r21	; 0x3f
    240a:	e8 97       	sbiw	r28, 0x38	; 56

0000240c <.LM199>:
    240c:	8e 01       	movw	r16, r28
    240e:	0f 5b       	subi	r16, 0xBF	; 191
    2410:	1f 4f       	sbci	r17, 0xFF	; 255
    2412:	e8 96       	adiw	r28, 0x38	; 56
    2414:	6c ad       	ldd	r22, Y+60	; 0x3c
    2416:	7d ad       	ldd	r23, Y+61	; 0x3d
    2418:	8e ad       	ldd	r24, Y+62	; 0x3e
    241a:	9f ad       	ldd	r25, Y+63	; 0x3f
    241c:	e8 97       	sbiw	r28, 0x38	; 56
    241e:	0e 94 40 17 	call	0x2e80	; 0x2e80 <__fixunssfsi>
    2422:	c8 55       	subi	r28, 0x58	; 88
    2424:	df 4f       	sbci	r29, 0xFF	; 255
    2426:	68 83       	st	Y, r22
    2428:	79 83       	std	Y+1, r23	; 0x01
    242a:	8a 83       	std	Y+2, r24	; 0x02
    242c:	9b 83       	std	Y+3, r25	; 0x03
    242e:	c8 5a       	subi	r28, 0xA8	; 168
    2430:	d0 40       	sbci	r29, 0x00	; 0
    2432:	c8 55       	subi	r28, 0x58	; 88
    2434:	df 4f       	sbci	r29, 0xFF	; 255
    2436:	e8 81       	ld	r30, Y
    2438:	f9 81       	ldd	r31, Y+1	; 0x01
    243a:	c8 5a       	subi	r28, 0xA8	; 168
    243c:	d0 40       	sbci	r29, 0x00	; 0
    243e:	d8 01       	movw	r26, r16
    2440:	ed 93       	st	X+, r30
    2442:	fc 93       	st	X, r31

00002444 <.LM200>:
    2444:	25 c0       	rjmp	.+74     	; 0x2490 <.L121>

00002446 <.L122>:
    2446:	ce 01       	movw	r24, r28
    2448:	8d 5b       	subi	r24, 0xBD	; 189
    244a:	9f 4f       	sbci	r25, 0xFF	; 255
    244c:	20 e9       	ldi	r18, 0x90	; 144
    244e:	31 e0       	ldi	r19, 0x01	; 1
    2450:	dc 01       	movw	r26, r24
    2452:	2d 93       	st	X+, r18
    2454:	3c 93       	st	X, r19

00002456 <.LM201>:
    2456:	ce 01       	movw	r24, r28
    2458:	8d 5b       	subi	r24, 0xBD	; 189
    245a:	9f 4f       	sbci	r25, 0xFF	; 255
    245c:	fc 01       	movw	r30, r24
    245e:	80 81       	ld	r24, Z
    2460:	91 81       	ldd	r25, Z+1	; 0x01

00002462 <.L1^B21>:
    2462:	01 97       	sbiw	r24, 0x01	; 1
    2464:	f1 f7       	brne	.-4      	; 0x2462 <.L1^B21>
    2466:	9e 01       	movw	r18, r28
    2468:	2d 5b       	subi	r18, 0xBD	; 189
    246a:	3f 4f       	sbci	r19, 0xFF	; 255
    246c:	d9 01       	movw	r26, r18
    246e:	8d 93       	st	X+, r24
    2470:	9c 93       	st	X, r25

00002472 <.LM202>:
	...

00002474 <.LM203>:
    2474:	ce 01       	movw	r24, r28
    2476:	8f 5b       	subi	r24, 0xBF	; 191
    2478:	9f 4f       	sbci	r25, 0xFF	; 255
    247a:	9e 01       	movw	r18, r28
    247c:	2f 5b       	subi	r18, 0xBF	; 191
    247e:	3f 4f       	sbci	r19, 0xFF	; 255
    2480:	f9 01       	movw	r30, r18
    2482:	20 81       	ld	r18, Z
    2484:	31 81       	ldd	r19, Z+1	; 0x01
    2486:	21 50       	subi	r18, 0x01	; 1
    2488:	31 09       	sbc	r19, r1
    248a:	dc 01       	movw	r26, r24
    248c:	2d 93       	st	X+, r18
    248e:	3c 93       	st	X, r19

00002490 <.L121>:
    2490:	ce 01       	movw	r24, r28
    2492:	8f 5b       	subi	r24, 0xBF	; 191
    2494:	9f 4f       	sbci	r25, 0xFF	; 255
    2496:	fc 01       	movw	r30, r24
    2498:	80 81       	ld	r24, Z
    249a:	91 81       	ldd	r25, Z+1	; 0x01
    249c:	89 2b       	or	r24, r25
    249e:	99 f6       	brne	.-90     	; 0x2446 <.L122>

000024a0 <.LM205>:
    24a0:	38 c0       	rjmp	.+112    	; 0x2512 <.L123>

000024a2 <.L175>:
    24a2:	8e 01       	movw	r16, r28
    24a4:	0f 5b       	subi	r16, 0xBF	; 191
    24a6:	1f 4f       	sbci	r17, 0xFF	; 255
    24a8:	ce 01       	movw	r24, r28
    24aa:	cd 96       	adiw	r24, 0x3d	; 61
    24ac:	dc 01       	movw	r26, r24
    24ae:	6d 91       	ld	r22, X+
    24b0:	7d 91       	ld	r23, X+
    24b2:	8d 91       	ld	r24, X+
    24b4:	9c 91       	ld	r25, X
    24b6:	0e 94 40 17 	call	0x2e80	; 0x2e80 <__fixunssfsi>
    24ba:	c4 55       	subi	r28, 0x54	; 84
    24bc:	df 4f       	sbci	r29, 0xFF	; 255
    24be:	68 83       	st	Y, r22
    24c0:	79 83       	std	Y+1, r23	; 0x01
    24c2:	8a 83       	std	Y+2, r24	; 0x02
    24c4:	9b 83       	std	Y+3, r25	; 0x03
    24c6:	cc 5a       	subi	r28, 0xAC	; 172
    24c8:	d0 40       	sbci	r29, 0x00	; 0
    24ca:	c4 55       	subi	r28, 0x54	; 84
    24cc:	df 4f       	sbci	r29, 0xFF	; 255
    24ce:	28 81       	ld	r18, Y
    24d0:	39 81       	ldd	r19, Y+1	; 0x01
    24d2:	cc 5a       	subi	r28, 0xAC	; 172
    24d4:	d0 40       	sbci	r29, 0x00	; 0
    24d6:	f8 01       	movw	r30, r16
    24d8:	31 83       	std	Z+1, r19	; 0x01
    24da:	20 83       	st	Z, r18

000024dc <.L118>:
    24dc:	ce 01       	movw	r24, r28
    24de:	8b 5b       	subi	r24, 0xBB	; 187
    24e0:	9f 4f       	sbci	r25, 0xFF	; 255
    24e2:	9e 01       	movw	r18, r28
    24e4:	2f 5b       	subi	r18, 0xBF	; 191
    24e6:	3f 4f       	sbci	r19, 0xFF	; 255
    24e8:	d9 01       	movw	r26, r18
    24ea:	2d 91       	ld	r18, X+
    24ec:	3c 91       	ld	r19, X
    24ee:	fc 01       	movw	r30, r24
    24f0:	31 83       	std	Z+1, r19	; 0x01
    24f2:	20 83       	st	Z, r18

000024f4 <.LM207>:
    24f4:	ce 01       	movw	r24, r28
    24f6:	8b 5b       	subi	r24, 0xBB	; 187
    24f8:	9f 4f       	sbci	r25, 0xFF	; 255
    24fa:	dc 01       	movw	r26, r24
    24fc:	8d 91       	ld	r24, X+
    24fe:	9c 91       	ld	r25, X

00002500 <.L1^B22>:
    2500:	01 97       	sbiw	r24, 0x01	; 1
    2502:	f1 f7       	brne	.-4      	; 0x2500 <.L1^B22>
    2504:	9e 01       	movw	r18, r28
    2506:	2b 5b       	subi	r18, 0xBB	; 187
    2508:	3f 4f       	sbci	r19, 0xFF	; 255
    250a:	f9 01       	movw	r30, r18
    250c:	91 83       	std	Z+1, r25	; 0x01
    250e:	80 83       	st	Z, r24

00002510 <.LM208>:
	...

00002512 <.L123>:
    2512:	40 e0       	ldi	r20, 0x00	; 0
    2514:	62 e0       	ldi	r22, 0x02	; 2
    2516:	80 e0       	ldi	r24, 0x00	; 0
    2518:	0e 94 86 04 	call	0x90c	; 0x90c <GPIO_writePin>
    251c:	80 e0       	ldi	r24, 0x00	; 0
    251e:	90 e0       	ldi	r25, 0x00	; 0
    2520:	a0 e8       	ldi	r26, 0x80	; 128
    2522:	bf e3       	ldi	r27, 0x3F	; 63
    2524:	8b a7       	std	Y+43, r24	; 0x2b
    2526:	9c a7       	std	Y+44, r25	; 0x2c
    2528:	ad a7       	std	Y+45, r26	; 0x2d
    252a:	be a7       	std	Y+46, r27	; 0x2e

0000252c <.LM210>:
    252c:	20 e0       	ldi	r18, 0x00	; 0
    252e:	30 e0       	ldi	r19, 0x00	; 0
    2530:	4a e7       	ldi	r20, 0x7A	; 122
    2532:	55 e4       	ldi	r21, 0x45	; 69
    2534:	6b a5       	ldd	r22, Y+43	; 0x2b
    2536:	7c a5       	ldd	r23, Y+44	; 0x2c
    2538:	8d a5       	ldd	r24, Y+45	; 0x2d
    253a:	9e a5       	ldd	r25, Y+46	; 0x2e
    253c:	0e 94 26 18 	call	0x304c	; 0x304c <__mulsf3>
    2540:	c0 55       	subi	r28, 0x50	; 80
    2542:	df 4f       	sbci	r29, 0xFF	; 255
    2544:	68 83       	st	Y, r22
    2546:	79 83       	std	Y+1, r23	; 0x01
    2548:	8a 83       	std	Y+2, r24	; 0x02
    254a:	9b 83       	std	Y+3, r25	; 0x03
    254c:	c0 5b       	subi	r28, 0xB0	; 176
    254e:	d0 40       	sbci	r29, 0x00	; 0
    2550:	c0 55       	subi	r28, 0x50	; 80
    2552:	df 4f       	sbci	r29, 0xFF	; 255
    2554:	28 81       	ld	r18, Y
    2556:	39 81       	ldd	r19, Y+1	; 0x01
    2558:	4a 81       	ldd	r20, Y+2	; 0x02
    255a:	5b 81       	ldd	r21, Y+3	; 0x03
    255c:	c0 5b       	subi	r28, 0xB0	; 176
    255e:	d0 40       	sbci	r29, 0x00	; 0
    2560:	2f a7       	std	Y+47, r18	; 0x2f
    2562:	38 ab       	std	Y+48, r19	; 0x30
    2564:	49 ab       	std	Y+49, r20	; 0x31
    2566:	5a ab       	std	Y+50, r21	; 0x32

00002568 <.LM211>:
    2568:	20 e0       	ldi	r18, 0x00	; 0
    256a:	30 e0       	ldi	r19, 0x00	; 0
    256c:	40 e8       	ldi	r20, 0x80	; 128
    256e:	5f e3       	ldi	r21, 0x3F	; 63
    2570:	6f a5       	ldd	r22, Y+47	; 0x2f
    2572:	78 a9       	ldd	r23, Y+48	; 0x30
    2574:	89 a9       	ldd	r24, Y+49	; 0x31
    2576:	9a a9       	ldd	r25, Y+50	; 0x32
    2578:	0e 94 c9 16 	call	0x2d92	; 0x2d92 <__cmpsf2>
    257c:	88 23       	and	r24, r24
    257e:	2c f4       	brge	.+10     	; 0x258a <.L176>

00002580 <.LM212>:
    2580:	81 e0       	ldi	r24, 0x01	; 1
    2582:	90 e0       	ldi	r25, 0x00	; 0
    2584:	9c ab       	std	Y+52, r25	; 0x34
    2586:	8b ab       	std	Y+51, r24	; 0x33
    2588:	71 c0       	rjmp	.+226    	; 0x266c <.L126>

0000258a <.L176>:
    258a:	20 e0       	ldi	r18, 0x00	; 0
    258c:	3f ef       	ldi	r19, 0xFF	; 255
    258e:	4f e7       	ldi	r20, 0x7F	; 127
    2590:	57 e4       	ldi	r21, 0x47	; 71
    2592:	6f a5       	ldd	r22, Y+47	; 0x2f
    2594:	78 a9       	ldd	r23, Y+48	; 0x30
    2596:	89 a9       	ldd	r24, Y+49	; 0x31
    2598:	9a a9       	ldd	r25, Y+50	; 0x32
    259a:	0e 94 21 18 	call	0x3042	; 0x3042 <__gesf2>
    259e:	18 16       	cp	r1, r24
    25a0:	0c f0       	brlt	.+2      	; 0x25a4 <.LM214>

000025a2 <L0^A>:
    25a2:	4e c0       	rjmp	.+156    	; 0x2640 <.L177>

000025a4 <.LM214>:
    25a4:	20 e0       	ldi	r18, 0x00	; 0
    25a6:	30 e0       	ldi	r19, 0x00	; 0
    25a8:	40 e2       	ldi	r20, 0x20	; 32
    25aa:	51 e4       	ldi	r21, 0x41	; 65
    25ac:	6b a5       	ldd	r22, Y+43	; 0x2b
    25ae:	7c a5       	ldd	r23, Y+44	; 0x2c
    25b0:	8d a5       	ldd	r24, Y+45	; 0x2d
    25b2:	9e a5       	ldd	r25, Y+46	; 0x2e
    25b4:	0e 94 26 18 	call	0x304c	; 0x304c <__mulsf3>
    25b8:	cc 54       	subi	r28, 0x4C	; 76
    25ba:	df 4f       	sbci	r29, 0xFF	; 255
    25bc:	68 83       	st	Y, r22
    25be:	79 83       	std	Y+1, r23	; 0x01
    25c0:	8a 83       	std	Y+2, r24	; 0x02
    25c2:	9b 83       	std	Y+3, r25	; 0x03
    25c4:	c4 5b       	subi	r28, 0xB4	; 180
    25c6:	d0 40       	sbci	r29, 0x00	; 0
    25c8:	cc 54       	subi	r28, 0x4C	; 76
    25ca:	df 4f       	sbci	r29, 0xFF	; 255
    25cc:	88 81       	ld	r24, Y
    25ce:	99 81       	ldd	r25, Y+1	; 0x01
    25d0:	aa 81       	ldd	r26, Y+2	; 0x02
    25d2:	bb 81       	ldd	r27, Y+3	; 0x03
    25d4:	c4 5b       	subi	r28, 0xB4	; 180
    25d6:	d0 40       	sbci	r29, 0x00	; 0
    25d8:	e4 96       	adiw	r28, 0x34	; 52
    25da:	8c af       	std	Y+60, r24	; 0x3c
    25dc:	9d af       	std	Y+61, r25	; 0x3d
    25de:	ae af       	std	Y+62, r26	; 0x3e
    25e0:	bf af       	std	Y+63, r27	; 0x3f
    25e2:	e4 97       	sbiw	r28, 0x34	; 52

000025e4 <.LM215>:
    25e4:	e4 96       	adiw	r28, 0x34	; 52
    25e6:	6c ad       	ldd	r22, Y+60	; 0x3c
    25e8:	7d ad       	ldd	r23, Y+61	; 0x3d
    25ea:	8e ad       	ldd	r24, Y+62	; 0x3e
    25ec:	9f ad       	ldd	r25, Y+63	; 0x3f
    25ee:	e4 97       	sbiw	r28, 0x34	; 52
    25f0:	0e 94 40 17 	call	0x2e80	; 0x2e80 <__fixunssfsi>
    25f4:	c8 54       	subi	r28, 0x48	; 72
    25f6:	df 4f       	sbci	r29, 0xFF	; 255
    25f8:	68 83       	st	Y, r22
    25fa:	79 83       	std	Y+1, r23	; 0x01
    25fc:	8a 83       	std	Y+2, r24	; 0x02
    25fe:	9b 83       	std	Y+3, r25	; 0x03
    2600:	c8 5b       	subi	r28, 0xB8	; 184
    2602:	d0 40       	sbci	r29, 0x00	; 0
    2604:	c8 54       	subi	r28, 0x48	; 72
    2606:	df 4f       	sbci	r29, 0xFF	; 255
    2608:	a8 81       	ld	r26, Y
    260a:	b9 81       	ldd	r27, Y+1	; 0x01
    260c:	c8 5b       	subi	r28, 0xB8	; 184
    260e:	d0 40       	sbci	r29, 0x00	; 0
    2610:	bc ab       	std	Y+52, r27	; 0x34
    2612:	ab ab       	std	Y+51, r26	; 0x33

00002614 <.LM216>:
    2614:	10 c0       	rjmp	.+32     	; 0x2636 <.L129>

00002616 <.L130>:
    2616:	80 e9       	ldi	r24, 0x90	; 144
    2618:	91 e0       	ldi	r25, 0x01	; 1
    261a:	9e ab       	std	Y+54, r25	; 0x36
    261c:	8d ab       	std	Y+53, r24	; 0x35

0000261e <.LM217>:
    261e:	8d a9       	ldd	r24, Y+53	; 0x35
    2620:	9e a9       	ldd	r25, Y+54	; 0x36

00002622 <.L1^B23>:
    2622:	01 97       	sbiw	r24, 0x01	; 1
    2624:	f1 f7       	brne	.-4      	; 0x2622 <.L1^B23>
    2626:	9e ab       	std	Y+54, r25	; 0x36
    2628:	8d ab       	std	Y+53, r24	; 0x35

0000262a <.LM218>:
	...

0000262c <.LM219>:
    262c:	8b a9       	ldd	r24, Y+51	; 0x33
    262e:	9c a9       	ldd	r25, Y+52	; 0x34
    2630:	01 97       	sbiw	r24, 0x01	; 1
    2632:	9c ab       	std	Y+52, r25	; 0x34
    2634:	8b ab       	std	Y+51, r24	; 0x33

00002636 <.L129>:
    2636:	8b a9       	ldd	r24, Y+51	; 0x33
    2638:	9c a9       	ldd	r25, Y+52	; 0x34
    263a:	89 2b       	or	r24, r25
    263c:	61 f7       	brne	.-40     	; 0x2616 <.L130>

0000263e <.LM221>:
    263e:	21 c0       	rjmp	.+66     	; 0x2682 <.L131>

00002640 <.L177>:
    2640:	6f a5       	ldd	r22, Y+47	; 0x2f
    2642:	78 a9       	ldd	r23, Y+48	; 0x30
    2644:	89 a9       	ldd	r24, Y+49	; 0x31
    2646:	9a a9       	ldd	r25, Y+50	; 0x32
    2648:	0e 94 40 17 	call	0x2e80	; 0x2e80 <__fixunssfsi>
    264c:	c4 54       	subi	r28, 0x44	; 68
    264e:	df 4f       	sbci	r29, 0xFF	; 255
    2650:	68 83       	st	Y, r22
    2652:	79 83       	std	Y+1, r23	; 0x01
    2654:	8a 83       	std	Y+2, r24	; 0x02
    2656:	9b 83       	std	Y+3, r25	; 0x03
    2658:	cc 5b       	subi	r28, 0xBC	; 188
    265a:	d0 40       	sbci	r29, 0x00	; 0
    265c:	c4 54       	subi	r28, 0x44	; 68
    265e:	df 4f       	sbci	r29, 0xFF	; 255
    2660:	e8 81       	ld	r30, Y
    2662:	f9 81       	ldd	r31, Y+1	; 0x01
    2664:	cc 5b       	subi	r28, 0xBC	; 188
    2666:	d0 40       	sbci	r29, 0x00	; 0
    2668:	fc ab       	std	Y+52, r31	; 0x34
    266a:	eb ab       	std	Y+51, r30	; 0x33

0000266c <.L126>:
    266c:	8b a9       	ldd	r24, Y+51	; 0x33
    266e:	9c a9       	ldd	r25, Y+52	; 0x34
    2670:	98 af       	std	Y+56, r25	; 0x38
    2672:	8f ab       	std	Y+55, r24	; 0x37

00002674 <.LM223>:
    2674:	8f a9       	ldd	r24, Y+55	; 0x37
    2676:	98 ad       	ldd	r25, Y+56	; 0x38

00002678 <.L1^B24>:
    2678:	01 97       	sbiw	r24, 0x01	; 1
    267a:	f1 f7       	brne	.-4      	; 0x2678 <.L1^B24>
    267c:	98 af       	std	Y+56, r25	; 0x38
    267e:	8f ab       	std	Y+55, r24	; 0x37

00002680 <.LM224>:
	...

00002682 <.L131>:
    2682:	41 e0       	ldi	r20, 0x01	; 1
    2684:	62 e0       	ldi	r22, 0x02	; 2
    2686:	80 e0       	ldi	r24, 0x00	; 0
    2688:	0e 94 86 04 	call	0x90c	; 0x90c <GPIO_writePin>
    268c:	80 e0       	ldi	r24, 0x00	; 0
    268e:	90 e0       	ldi	r25, 0x00	; 0
    2690:	a0 e8       	ldi	r26, 0x80	; 128
    2692:	bf e3       	ldi	r27, 0x3F	; 63
    2694:	8d 8f       	std	Y+29, r24	; 0x1d
    2696:	9e 8f       	std	Y+30, r25	; 0x1e
    2698:	af 8f       	std	Y+31, r26	; 0x1f
    269a:	b8 a3       	std	Y+32, r27	; 0x20

0000269c <.LM226>:
    269c:	20 e0       	ldi	r18, 0x00	; 0
    269e:	30 e0       	ldi	r19, 0x00	; 0
    26a0:	4a e7       	ldi	r20, 0x7A	; 122
    26a2:	55 e4       	ldi	r21, 0x45	; 69
    26a4:	6d 8d       	ldd	r22, Y+29	; 0x1d
    26a6:	7e 8d       	ldd	r23, Y+30	; 0x1e
    26a8:	8f 8d       	ldd	r24, Y+31	; 0x1f
    26aa:	98 a1       	ldd	r25, Y+32	; 0x20
    26ac:	0e 94 26 18 	call	0x304c	; 0x304c <__mulsf3>
    26b0:	c0 54       	subi	r28, 0x40	; 64
    26b2:	df 4f       	sbci	r29, 0xFF	; 255
    26b4:	68 83       	st	Y, r22
    26b6:	79 83       	std	Y+1, r23	; 0x01
    26b8:	8a 83       	std	Y+2, r24	; 0x02
    26ba:	9b 83       	std	Y+3, r25	; 0x03
    26bc:	c0 5c       	subi	r28, 0xC0	; 192
    26be:	d0 40       	sbci	r29, 0x00	; 0
    26c0:	c0 54       	subi	r28, 0x40	; 64
    26c2:	df 4f       	sbci	r29, 0xFF	; 255
    26c4:	28 81       	ld	r18, Y
    26c6:	39 81       	ldd	r19, Y+1	; 0x01
    26c8:	4a 81       	ldd	r20, Y+2	; 0x02
    26ca:	5b 81       	ldd	r21, Y+3	; 0x03
    26cc:	c0 5c       	subi	r28, 0xC0	; 192
    26ce:	d0 40       	sbci	r29, 0x00	; 0
    26d0:	29 a3       	std	Y+33, r18	; 0x21
    26d2:	3a a3       	std	Y+34, r19	; 0x22
    26d4:	4b a3       	std	Y+35, r20	; 0x23
    26d6:	5c a3       	std	Y+36, r21	; 0x24

000026d8 <.LM227>:
    26d8:	20 e0       	ldi	r18, 0x00	; 0
    26da:	30 e0       	ldi	r19, 0x00	; 0
    26dc:	40 e8       	ldi	r20, 0x80	; 128
    26de:	5f e3       	ldi	r21, 0x3F	; 63
    26e0:	69 a1       	ldd	r22, Y+33	; 0x21
    26e2:	7a a1       	ldd	r23, Y+34	; 0x22
    26e4:	8b a1       	ldd	r24, Y+35	; 0x23
    26e6:	9c a1       	ldd	r25, Y+36	; 0x24
    26e8:	0e 94 c9 16 	call	0x2d92	; 0x2d92 <__cmpsf2>
    26ec:	88 23       	and	r24, r24
    26ee:	2c f4       	brge	.+10     	; 0x26fa <.L178>

000026f0 <.LM228>:
    26f0:	81 e0       	ldi	r24, 0x01	; 1
    26f2:	90 e0       	ldi	r25, 0x00	; 0
    26f4:	9e a3       	std	Y+38, r25	; 0x26
    26f6:	8d a3       	std	Y+37, r24	; 0x25
    26f8:	71 c0       	rjmp	.+226    	; 0x27dc <.L134>

000026fa <.L178>:
    26fa:	20 e0       	ldi	r18, 0x00	; 0
    26fc:	3f ef       	ldi	r19, 0xFF	; 255
    26fe:	4f e7       	ldi	r20, 0x7F	; 127
    2700:	57 e4       	ldi	r21, 0x47	; 71
    2702:	69 a1       	ldd	r22, Y+33	; 0x21
    2704:	7a a1       	ldd	r23, Y+34	; 0x22
    2706:	8b a1       	ldd	r24, Y+35	; 0x23
    2708:	9c a1       	ldd	r25, Y+36	; 0x24
    270a:	0e 94 21 18 	call	0x3042	; 0x3042 <__gesf2>
    270e:	18 16       	cp	r1, r24
    2710:	0c f0       	brlt	.+2      	; 0x2714 <.LM230>

00002712 <L0^A>:
    2712:	4e c0       	rjmp	.+156    	; 0x27b0 <.L179>

00002714 <.LM230>:
    2714:	20 e0       	ldi	r18, 0x00	; 0
    2716:	30 e0       	ldi	r19, 0x00	; 0
    2718:	40 e2       	ldi	r20, 0x20	; 32
    271a:	51 e4       	ldi	r21, 0x41	; 65
    271c:	6d 8d       	ldd	r22, Y+29	; 0x1d
    271e:	7e 8d       	ldd	r23, Y+30	; 0x1e
    2720:	8f 8d       	ldd	r24, Y+31	; 0x1f
    2722:	98 a1       	ldd	r25, Y+32	; 0x20
    2724:	0e 94 26 18 	call	0x304c	; 0x304c <__mulsf3>
    2728:	cc 53       	subi	r28, 0x3C	; 60
    272a:	df 4f       	sbci	r29, 0xFF	; 255
    272c:	68 83       	st	Y, r22
    272e:	79 83       	std	Y+1, r23	; 0x01
    2730:	8a 83       	std	Y+2, r24	; 0x02
    2732:	9b 83       	std	Y+3, r25	; 0x03
    2734:	c4 5c       	subi	r28, 0xC4	; 196
    2736:	d0 40       	sbci	r29, 0x00	; 0
    2738:	cc 53       	subi	r28, 0x3C	; 60
    273a:	df 4f       	sbci	r29, 0xFF	; 255
    273c:	88 81       	ld	r24, Y
    273e:	99 81       	ldd	r25, Y+1	; 0x01
    2740:	aa 81       	ldd	r26, Y+2	; 0x02
    2742:	bb 81       	ldd	r27, Y+3	; 0x03
    2744:	c4 5c       	subi	r28, 0xC4	; 196
    2746:	d0 40       	sbci	r29, 0x00	; 0
    2748:	e0 96       	adiw	r28, 0x30	; 48
    274a:	8c af       	std	Y+60, r24	; 0x3c
    274c:	9d af       	std	Y+61, r25	; 0x3d
    274e:	ae af       	std	Y+62, r26	; 0x3e
    2750:	bf af       	std	Y+63, r27	; 0x3f
    2752:	e0 97       	sbiw	r28, 0x30	; 48

00002754 <.LM231>:
    2754:	e0 96       	adiw	r28, 0x30	; 48
    2756:	6c ad       	ldd	r22, Y+60	; 0x3c
    2758:	7d ad       	ldd	r23, Y+61	; 0x3d
    275a:	8e ad       	ldd	r24, Y+62	; 0x3e
    275c:	9f ad       	ldd	r25, Y+63	; 0x3f
    275e:	e0 97       	sbiw	r28, 0x30	; 48
    2760:	0e 94 40 17 	call	0x2e80	; 0x2e80 <__fixunssfsi>
    2764:	c8 53       	subi	r28, 0x38	; 56
    2766:	df 4f       	sbci	r29, 0xFF	; 255
    2768:	68 83       	st	Y, r22
    276a:	79 83       	std	Y+1, r23	; 0x01
    276c:	8a 83       	std	Y+2, r24	; 0x02
    276e:	9b 83       	std	Y+3, r25	; 0x03
    2770:	c8 5c       	subi	r28, 0xC8	; 200
    2772:	d0 40       	sbci	r29, 0x00	; 0
    2774:	c8 53       	subi	r28, 0x38	; 56
    2776:	df 4f       	sbci	r29, 0xFF	; 255
    2778:	a8 81       	ld	r26, Y
    277a:	b9 81       	ldd	r27, Y+1	; 0x01
    277c:	c8 5c       	subi	r28, 0xC8	; 200
    277e:	d0 40       	sbci	r29, 0x00	; 0
    2780:	be a3       	std	Y+38, r27	; 0x26
    2782:	ad a3       	std	Y+37, r26	; 0x25

00002784 <.LM232>:
    2784:	10 c0       	rjmp	.+32     	; 0x27a6 <.L137>

00002786 <.L138>:
    2786:	80 e9       	ldi	r24, 0x90	; 144
    2788:	91 e0       	ldi	r25, 0x01	; 1
    278a:	98 a7       	std	Y+40, r25	; 0x28
    278c:	8f a3       	std	Y+39, r24	; 0x27

0000278e <.LM233>:
    278e:	8f a1       	ldd	r24, Y+39	; 0x27
    2790:	98 a5       	ldd	r25, Y+40	; 0x28

00002792 <.L1^B25>:
    2792:	01 97       	sbiw	r24, 0x01	; 1
    2794:	f1 f7       	brne	.-4      	; 0x2792 <.L1^B25>
    2796:	98 a7       	std	Y+40, r25	; 0x28
    2798:	8f a3       	std	Y+39, r24	; 0x27

0000279a <.LM234>:
	...

0000279c <.LM235>:
    279c:	8d a1       	ldd	r24, Y+37	; 0x25
    279e:	9e a1       	ldd	r25, Y+38	; 0x26
    27a0:	01 97       	sbiw	r24, 0x01	; 1
    27a2:	9e a3       	std	Y+38, r25	; 0x26
    27a4:	8d a3       	std	Y+37, r24	; 0x25

000027a6 <.L137>:
    27a6:	8d a1       	ldd	r24, Y+37	; 0x25
    27a8:	9e a1       	ldd	r25, Y+38	; 0x26
    27aa:	89 2b       	or	r24, r25
    27ac:	61 f7       	brne	.-40     	; 0x2786 <.L138>

000027ae <.LM237>:
    27ae:	21 c0       	rjmp	.+66     	; 0x27f2 <.L139>

000027b0 <.L179>:
    27b0:	69 a1       	ldd	r22, Y+33	; 0x21
    27b2:	7a a1       	ldd	r23, Y+34	; 0x22
    27b4:	8b a1       	ldd	r24, Y+35	; 0x23
    27b6:	9c a1       	ldd	r25, Y+36	; 0x24
    27b8:	0e 94 40 17 	call	0x2e80	; 0x2e80 <__fixunssfsi>
    27bc:	c4 53       	subi	r28, 0x34	; 52
    27be:	df 4f       	sbci	r29, 0xFF	; 255
    27c0:	68 83       	st	Y, r22
    27c2:	79 83       	std	Y+1, r23	; 0x01
    27c4:	8a 83       	std	Y+2, r24	; 0x02
    27c6:	9b 83       	std	Y+3, r25	; 0x03
    27c8:	cc 5c       	subi	r28, 0xCC	; 204
    27ca:	d0 40       	sbci	r29, 0x00	; 0
    27cc:	c4 53       	subi	r28, 0x34	; 52
    27ce:	df 4f       	sbci	r29, 0xFF	; 255
    27d0:	e8 81       	ld	r30, Y
    27d2:	f9 81       	ldd	r31, Y+1	; 0x01
    27d4:	cc 5c       	subi	r28, 0xCC	; 204
    27d6:	d0 40       	sbci	r29, 0x00	; 0
    27d8:	fe a3       	std	Y+38, r31	; 0x26
    27da:	ed a3       	std	Y+37, r30	; 0x25

000027dc <.L134>:
    27dc:	8d a1       	ldd	r24, Y+37	; 0x25
    27de:	9e a1       	ldd	r25, Y+38	; 0x26
    27e0:	9a a7       	std	Y+42, r25	; 0x2a
    27e2:	89 a7       	std	Y+41, r24	; 0x29

000027e4 <.LM239>:
    27e4:	89 a5       	ldd	r24, Y+41	; 0x29
    27e6:	9a a5       	ldd	r25, Y+42	; 0x2a

000027e8 <.L1^B26>:
    27e8:	01 97       	sbiw	r24, 0x01	; 1
    27ea:	f1 f7       	brne	.-4      	; 0x27e8 <.L1^B26>
    27ec:	9a a7       	std	Y+42, r25	; 0x2a
    27ee:	89 a7       	std	Y+41, r24	; 0x29

000027f0 <.LM240>:
	...

000027f2 <.L139>:
    27f2:	ce 01       	movw	r24, r28
    27f4:	8d 59       	subi	r24, 0x9D	; 157
    27f6:	9f 4f       	sbci	r25, 0xFF	; 255
    27f8:	dc 01       	movw	r26, r24
    27fa:	8c 91       	ld	r24, X
    27fc:	81 70       	andi	r24, 0x01	; 1
    27fe:	48 2f       	mov	r20, r24
    2800:	63 e0       	ldi	r22, 0x03	; 3
    2802:	80 e0       	ldi	r24, 0x00	; 0
    2804:	0e 94 86 04 	call	0x90c	; 0x90c <GPIO_writePin>

00002808 <.LM242>:
    2808:	ce 01       	movw	r24, r28
    280a:	8d 59       	subi	r24, 0x9D	; 157
    280c:	9f 4f       	sbci	r25, 0xFF	; 255
    280e:	fc 01       	movw	r30, r24
    2810:	80 81       	ld	r24, Z
    2812:	88 2f       	mov	r24, r24
    2814:	90 e0       	ldi	r25, 0x00	; 0
    2816:	95 95       	asr	r25
    2818:	87 95       	ror	r24

0000281a <.LM243>:
    281a:	81 70       	andi	r24, 0x01	; 1
    281c:	48 2f       	mov	r20, r24
    281e:	64 e0       	ldi	r22, 0x04	; 4
    2820:	80 e0       	ldi	r24, 0x00	; 0
    2822:	0e 94 86 04 	call	0x90c	; 0x90c <GPIO_writePin>

00002826 <.LM244>:
    2826:	ce 01       	movw	r24, r28
    2828:	8d 59       	subi	r24, 0x9D	; 157
    282a:	9f 4f       	sbci	r25, 0xFF	; 255
    282c:	dc 01       	movw	r26, r24
    282e:	8c 91       	ld	r24, X
    2830:	88 2f       	mov	r24, r24
    2832:	90 e0       	ldi	r25, 0x00	; 0
    2834:	95 95       	asr	r25
    2836:	87 95       	ror	r24
    2838:	95 95       	asr	r25
    283a:	87 95       	ror	r24

0000283c <.LM245>:
    283c:	81 70       	andi	r24, 0x01	; 1
    283e:	48 2f       	mov	r20, r24
    2840:	65 e0       	ldi	r22, 0x05	; 5
    2842:	80 e0       	ldi	r24, 0x00	; 0
    2844:	0e 94 86 04 	call	0x90c	; 0x90c <GPIO_writePin>

00002848 <.LM246>:
    2848:	ce 01       	movw	r24, r28
    284a:	8d 59       	subi	r24, 0x9D	; 157
    284c:	9f 4f       	sbci	r25, 0xFF	; 255
    284e:	fc 01       	movw	r30, r24
    2850:	80 81       	ld	r24, Z
    2852:	88 2f       	mov	r24, r24
    2854:	90 e0       	ldi	r25, 0x00	; 0
    2856:	95 95       	asr	r25
    2858:	87 95       	ror	r24
    285a:	95 95       	asr	r25
    285c:	87 95       	ror	r24
    285e:	95 95       	asr	r25
    2860:	87 95       	ror	r24

00002862 <.LM247>:
    2862:	81 70       	andi	r24, 0x01	; 1
    2864:	48 2f       	mov	r20, r24
    2866:	66 e0       	ldi	r22, 0x06	; 6
    2868:	80 e0       	ldi	r24, 0x00	; 0
    286a:	0e 94 86 04 	call	0x90c	; 0x90c <GPIO_writePin>
    286e:	80 e0       	ldi	r24, 0x00	; 0
    2870:	90 e0       	ldi	r25, 0x00	; 0
    2872:	a0 e8       	ldi	r26, 0x80	; 128
    2874:	bf e3       	ldi	r27, 0x3F	; 63
    2876:	8f 87       	std	Y+15, r24	; 0x0f
    2878:	98 8b       	std	Y+16, r25	; 0x10
    287a:	a9 8b       	std	Y+17, r26	; 0x11
    287c:	ba 8b       	std	Y+18, r27	; 0x12

0000287e <.LM248>:
    287e:	20 e0       	ldi	r18, 0x00	; 0
    2880:	30 e0       	ldi	r19, 0x00	; 0
    2882:	4a e7       	ldi	r20, 0x7A	; 122
    2884:	55 e4       	ldi	r21, 0x45	; 69
    2886:	6f 85       	ldd	r22, Y+15	; 0x0f
    2888:	78 89       	ldd	r23, Y+16	; 0x10
    288a:	89 89       	ldd	r24, Y+17	; 0x11
    288c:	9a 89       	ldd	r25, Y+18	; 0x12
    288e:	0e 94 26 18 	call	0x304c	; 0x304c <__mulsf3>
    2892:	c0 53       	subi	r28, 0x30	; 48
    2894:	df 4f       	sbci	r29, 0xFF	; 255
    2896:	68 83       	st	Y, r22
    2898:	79 83       	std	Y+1, r23	; 0x01
    289a:	8a 83       	std	Y+2, r24	; 0x02
    289c:	9b 83       	std	Y+3, r25	; 0x03
    289e:	c0 5d       	subi	r28, 0xD0	; 208
    28a0:	d0 40       	sbci	r29, 0x00	; 0
    28a2:	c0 53       	subi	r28, 0x30	; 48
    28a4:	df 4f       	sbci	r29, 0xFF	; 255
    28a6:	28 81       	ld	r18, Y
    28a8:	39 81       	ldd	r19, Y+1	; 0x01
    28aa:	4a 81       	ldd	r20, Y+2	; 0x02
    28ac:	5b 81       	ldd	r21, Y+3	; 0x03
    28ae:	c0 5d       	subi	r28, 0xD0	; 208
    28b0:	d0 40       	sbci	r29, 0x00	; 0
    28b2:	2b 8b       	std	Y+19, r18	; 0x13
    28b4:	3c 8b       	std	Y+20, r19	; 0x14
    28b6:	4d 8b       	std	Y+21, r20	; 0x15
    28b8:	5e 8b       	std	Y+22, r21	; 0x16

000028ba <.LM249>:
    28ba:	20 e0       	ldi	r18, 0x00	; 0
    28bc:	30 e0       	ldi	r19, 0x00	; 0
    28be:	40 e8       	ldi	r20, 0x80	; 128
    28c0:	5f e3       	ldi	r21, 0x3F	; 63
    28c2:	6b 89       	ldd	r22, Y+19	; 0x13
    28c4:	7c 89       	ldd	r23, Y+20	; 0x14
    28c6:	8d 89       	ldd	r24, Y+21	; 0x15
    28c8:	9e 89       	ldd	r25, Y+22	; 0x16
    28ca:	0e 94 c9 16 	call	0x2d92	; 0x2d92 <__cmpsf2>
    28ce:	88 23       	and	r24, r24
    28d0:	2c f4       	brge	.+10     	; 0x28dc <.L180>

000028d2 <.LM250>:
    28d2:	81 e0       	ldi	r24, 0x01	; 1
    28d4:	90 e0       	ldi	r25, 0x00	; 0
    28d6:	98 8f       	std	Y+24, r25	; 0x18
    28d8:	8f 8b       	std	Y+23, r24	; 0x17
    28da:	71 c0       	rjmp	.+226    	; 0x29be <.L142>

000028dc <.L180>:
    28dc:	20 e0       	ldi	r18, 0x00	; 0
    28de:	3f ef       	ldi	r19, 0xFF	; 255
    28e0:	4f e7       	ldi	r20, 0x7F	; 127
    28e2:	57 e4       	ldi	r21, 0x47	; 71
    28e4:	6b 89       	ldd	r22, Y+19	; 0x13
    28e6:	7c 89       	ldd	r23, Y+20	; 0x14
    28e8:	8d 89       	ldd	r24, Y+21	; 0x15
    28ea:	9e 89       	ldd	r25, Y+22	; 0x16
    28ec:	0e 94 21 18 	call	0x3042	; 0x3042 <__gesf2>
    28f0:	18 16       	cp	r1, r24
    28f2:	0c f0       	brlt	.+2      	; 0x28f6 <.LM252>

000028f4 <L0^A>:
    28f4:	4e c0       	rjmp	.+156    	; 0x2992 <.L181>

000028f6 <.LM252>:
    28f6:	20 e0       	ldi	r18, 0x00	; 0
    28f8:	30 e0       	ldi	r19, 0x00	; 0
    28fa:	40 e2       	ldi	r20, 0x20	; 32
    28fc:	51 e4       	ldi	r21, 0x41	; 65
    28fe:	6f 85       	ldd	r22, Y+15	; 0x0f
    2900:	78 89       	ldd	r23, Y+16	; 0x10
    2902:	89 89       	ldd	r24, Y+17	; 0x11
    2904:	9a 89       	ldd	r25, Y+18	; 0x12
    2906:	0e 94 26 18 	call	0x304c	; 0x304c <__mulsf3>
    290a:	cc 52       	subi	r28, 0x2C	; 44
    290c:	df 4f       	sbci	r29, 0xFF	; 255
    290e:	68 83       	st	Y, r22
    2910:	79 83       	std	Y+1, r23	; 0x01
    2912:	8a 83       	std	Y+2, r24	; 0x02
    2914:	9b 83       	std	Y+3, r25	; 0x03
    2916:	c4 5d       	subi	r28, 0xD4	; 212
    2918:	d0 40       	sbci	r29, 0x00	; 0
    291a:	cc 52       	subi	r28, 0x2C	; 44
    291c:	df 4f       	sbci	r29, 0xFF	; 255
    291e:	88 81       	ld	r24, Y
    2920:	99 81       	ldd	r25, Y+1	; 0x01
    2922:	aa 81       	ldd	r26, Y+2	; 0x02
    2924:	bb 81       	ldd	r27, Y+3	; 0x03
    2926:	c4 5d       	subi	r28, 0xD4	; 212
    2928:	d0 40       	sbci	r29, 0x00	; 0
    292a:	ac 96       	adiw	r28, 0x2c	; 44
    292c:	8c af       	std	Y+60, r24	; 0x3c
    292e:	9d af       	std	Y+61, r25	; 0x3d
    2930:	ae af       	std	Y+62, r26	; 0x3e
    2932:	bf af       	std	Y+63, r27	; 0x3f
    2934:	ac 97       	sbiw	r28, 0x2c	; 44

00002936 <.LM253>:
    2936:	ac 96       	adiw	r28, 0x2c	; 44
    2938:	6c ad       	ldd	r22, Y+60	; 0x3c
    293a:	7d ad       	ldd	r23, Y+61	; 0x3d
    293c:	8e ad       	ldd	r24, Y+62	; 0x3e
    293e:	9f ad       	ldd	r25, Y+63	; 0x3f
    2940:	ac 97       	sbiw	r28, 0x2c	; 44
    2942:	0e 94 40 17 	call	0x2e80	; 0x2e80 <__fixunssfsi>
    2946:	c8 52       	subi	r28, 0x28	; 40
    2948:	df 4f       	sbci	r29, 0xFF	; 255
    294a:	68 83       	st	Y, r22
    294c:	79 83       	std	Y+1, r23	; 0x01
    294e:	8a 83       	std	Y+2, r24	; 0x02
    2950:	9b 83       	std	Y+3, r25	; 0x03
    2952:	c8 5d       	subi	r28, 0xD8	; 216
    2954:	d0 40       	sbci	r29, 0x00	; 0
    2956:	c8 52       	subi	r28, 0x28	; 40
    2958:	df 4f       	sbci	r29, 0xFF	; 255
    295a:	a8 81       	ld	r26, Y
    295c:	b9 81       	ldd	r27, Y+1	; 0x01
    295e:	c8 5d       	subi	r28, 0xD8	; 216
    2960:	d0 40       	sbci	r29, 0x00	; 0
    2962:	b8 8f       	std	Y+24, r27	; 0x18
    2964:	af 8b       	std	Y+23, r26	; 0x17

00002966 <.LM254>:
    2966:	10 c0       	rjmp	.+32     	; 0x2988 <.L145>

00002968 <.L146>:
    2968:	80 e9       	ldi	r24, 0x90	; 144
    296a:	91 e0       	ldi	r25, 0x01	; 1
    296c:	9a 8f       	std	Y+26, r25	; 0x1a
    296e:	89 8f       	std	Y+25, r24	; 0x19

00002970 <.LM255>:
    2970:	89 8d       	ldd	r24, Y+25	; 0x19
    2972:	9a 8d       	ldd	r25, Y+26	; 0x1a

00002974 <.L1^B27>:
    2974:	01 97       	sbiw	r24, 0x01	; 1
    2976:	f1 f7       	brne	.-4      	; 0x2974 <.L1^B27>
    2978:	9a 8f       	std	Y+26, r25	; 0x1a
    297a:	89 8f       	std	Y+25, r24	; 0x19

0000297c <.LM256>:
	...

0000297e <.LM257>:
    297e:	8f 89       	ldd	r24, Y+23	; 0x17
    2980:	98 8d       	ldd	r25, Y+24	; 0x18
    2982:	01 97       	sbiw	r24, 0x01	; 1
    2984:	98 8f       	std	Y+24, r25	; 0x18
    2986:	8f 8b       	std	Y+23, r24	; 0x17

00002988 <.L145>:
    2988:	8f 89       	ldd	r24, Y+23	; 0x17
    298a:	98 8d       	ldd	r25, Y+24	; 0x18
    298c:	89 2b       	or	r24, r25
    298e:	61 f7       	brne	.-40     	; 0x2968 <.L146>

00002990 <.LM259>:
    2990:	21 c0       	rjmp	.+66     	; 0x29d4 <.L147>

00002992 <.L181>:
    2992:	6b 89       	ldd	r22, Y+19	; 0x13
    2994:	7c 89       	ldd	r23, Y+20	; 0x14
    2996:	8d 89       	ldd	r24, Y+21	; 0x15
    2998:	9e 89       	ldd	r25, Y+22	; 0x16
    299a:	0e 94 40 17 	call	0x2e80	; 0x2e80 <__fixunssfsi>
    299e:	c4 52       	subi	r28, 0x24	; 36
    29a0:	df 4f       	sbci	r29, 0xFF	; 255
    29a2:	68 83       	st	Y, r22
    29a4:	79 83       	std	Y+1, r23	; 0x01
    29a6:	8a 83       	std	Y+2, r24	; 0x02
    29a8:	9b 83       	std	Y+3, r25	; 0x03
    29aa:	cc 5d       	subi	r28, 0xDC	; 220
    29ac:	d0 40       	sbci	r29, 0x00	; 0
    29ae:	c4 52       	subi	r28, 0x24	; 36
    29b0:	df 4f       	sbci	r29, 0xFF	; 255
    29b2:	e8 81       	ld	r30, Y
    29b4:	f9 81       	ldd	r31, Y+1	; 0x01
    29b6:	cc 5d       	subi	r28, 0xDC	; 220
    29b8:	d0 40       	sbci	r29, 0x00	; 0
    29ba:	f8 8f       	std	Y+24, r31	; 0x18
    29bc:	ef 8b       	std	Y+23, r30	; 0x17

000029be <.L142>:
    29be:	8f 89       	ldd	r24, Y+23	; 0x17
    29c0:	98 8d       	ldd	r25, Y+24	; 0x18
    29c2:	9c 8f       	std	Y+28, r25	; 0x1c
    29c4:	8b 8f       	std	Y+27, r24	; 0x1b

000029c6 <.LM261>:
    29c6:	8b 8d       	ldd	r24, Y+27	; 0x1b
    29c8:	9c 8d       	ldd	r25, Y+28	; 0x1c

000029ca <.L1^B28>:
    29ca:	01 97       	sbiw	r24, 0x01	; 1
    29cc:	f1 f7       	brne	.-4      	; 0x29ca <.L1^B28>
    29ce:	9c 8f       	std	Y+28, r25	; 0x1c
    29d0:	8b 8f       	std	Y+27, r24	; 0x1b

000029d2 <.LM262>:
	...

000029d4 <.L147>:
    29d4:	40 e0       	ldi	r20, 0x00	; 0
    29d6:	62 e0       	ldi	r22, 0x02	; 2
    29d8:	80 e0       	ldi	r24, 0x00	; 0
    29da:	0e 94 86 04 	call	0x90c	; 0x90c <GPIO_writePin>
    29de:	80 e0       	ldi	r24, 0x00	; 0
    29e0:	90 e0       	ldi	r25, 0x00	; 0
    29e2:	a0 e8       	ldi	r26, 0x80	; 128
    29e4:	bf e3       	ldi	r27, 0x3F	; 63
    29e6:	89 83       	std	Y+1, r24	; 0x01
    29e8:	9a 83       	std	Y+2, r25	; 0x02
    29ea:	ab 83       	std	Y+3, r26	; 0x03
    29ec:	bc 83       	std	Y+4, r27	; 0x04

000029ee <.LM264>:
    29ee:	20 e0       	ldi	r18, 0x00	; 0
    29f0:	30 e0       	ldi	r19, 0x00	; 0
    29f2:	4a e7       	ldi	r20, 0x7A	; 122
    29f4:	55 e4       	ldi	r21, 0x45	; 69
    29f6:	69 81       	ldd	r22, Y+1	; 0x01
    29f8:	7a 81       	ldd	r23, Y+2	; 0x02
    29fa:	8b 81       	ldd	r24, Y+3	; 0x03
    29fc:	9c 81       	ldd	r25, Y+4	; 0x04
    29fe:	0e 94 26 18 	call	0x304c	; 0x304c <__mulsf3>
    2a02:	c0 52       	subi	r28, 0x20	; 32
    2a04:	df 4f       	sbci	r29, 0xFF	; 255
    2a06:	68 83       	st	Y, r22
    2a08:	79 83       	std	Y+1, r23	; 0x01
    2a0a:	8a 83       	std	Y+2, r24	; 0x02
    2a0c:	9b 83       	std	Y+3, r25	; 0x03
    2a0e:	c0 5e       	subi	r28, 0xE0	; 224
    2a10:	d0 40       	sbci	r29, 0x00	; 0
    2a12:	c0 52       	subi	r28, 0x20	; 32
    2a14:	df 4f       	sbci	r29, 0xFF	; 255
    2a16:	28 81       	ld	r18, Y
    2a18:	39 81       	ldd	r19, Y+1	; 0x01
    2a1a:	4a 81       	ldd	r20, Y+2	; 0x02
    2a1c:	5b 81       	ldd	r21, Y+3	; 0x03
    2a1e:	c0 5e       	subi	r28, 0xE0	; 224
    2a20:	d0 40       	sbci	r29, 0x00	; 0
    2a22:	2d 83       	std	Y+5, r18	; 0x05
    2a24:	3e 83       	std	Y+6, r19	; 0x06
    2a26:	4f 83       	std	Y+7, r20	; 0x07
    2a28:	58 87       	std	Y+8, r21	; 0x08

00002a2a <.LM265>:
    2a2a:	20 e0       	ldi	r18, 0x00	; 0
    2a2c:	30 e0       	ldi	r19, 0x00	; 0
    2a2e:	40 e8       	ldi	r20, 0x80	; 128
    2a30:	5f e3       	ldi	r21, 0x3F	; 63
    2a32:	6d 81       	ldd	r22, Y+5	; 0x05
    2a34:	7e 81       	ldd	r23, Y+6	; 0x06
    2a36:	8f 81       	ldd	r24, Y+7	; 0x07
    2a38:	98 85       	ldd	r25, Y+8	; 0x08
    2a3a:	0e 94 c9 16 	call	0x2d92	; 0x2d92 <__cmpsf2>
    2a3e:	88 23       	and	r24, r24
    2a40:	2c f4       	brge	.+10     	; 0x2a4c <.L182>

00002a42 <.LM266>:
    2a42:	81 e0       	ldi	r24, 0x01	; 1
    2a44:	90 e0       	ldi	r25, 0x00	; 0
    2a46:	9a 87       	std	Y+10, r25	; 0x0a
    2a48:	89 87       	std	Y+9, r24	; 0x09
    2a4a:	71 c0       	rjmp	.+226    	; 0x2b2e <.L150>

00002a4c <.L182>:
    2a4c:	20 e0       	ldi	r18, 0x00	; 0
    2a4e:	3f ef       	ldi	r19, 0xFF	; 255
    2a50:	4f e7       	ldi	r20, 0x7F	; 127
    2a52:	57 e4       	ldi	r21, 0x47	; 71
    2a54:	6d 81       	ldd	r22, Y+5	; 0x05
    2a56:	7e 81       	ldd	r23, Y+6	; 0x06
    2a58:	8f 81       	ldd	r24, Y+7	; 0x07
    2a5a:	98 85       	ldd	r25, Y+8	; 0x08
    2a5c:	0e 94 21 18 	call	0x3042	; 0x3042 <__gesf2>
    2a60:	18 16       	cp	r1, r24
    2a62:	0c f0       	brlt	.+2      	; 0x2a66 <.LM268>

00002a64 <L0^A>:
    2a64:	4e c0       	rjmp	.+156    	; 0x2b02 <.L183>

00002a66 <.LM268>:
    2a66:	20 e0       	ldi	r18, 0x00	; 0
    2a68:	30 e0       	ldi	r19, 0x00	; 0
    2a6a:	40 e2       	ldi	r20, 0x20	; 32
    2a6c:	51 e4       	ldi	r21, 0x41	; 65
    2a6e:	69 81       	ldd	r22, Y+1	; 0x01
    2a70:	7a 81       	ldd	r23, Y+2	; 0x02
    2a72:	8b 81       	ldd	r24, Y+3	; 0x03
    2a74:	9c 81       	ldd	r25, Y+4	; 0x04
    2a76:	0e 94 26 18 	call	0x304c	; 0x304c <__mulsf3>
    2a7a:	cc 51       	subi	r28, 0x1C	; 28
    2a7c:	df 4f       	sbci	r29, 0xFF	; 255
    2a7e:	68 83       	st	Y, r22
    2a80:	79 83       	std	Y+1, r23	; 0x01
    2a82:	8a 83       	std	Y+2, r24	; 0x02
    2a84:	9b 83       	std	Y+3, r25	; 0x03
    2a86:	c4 5e       	subi	r28, 0xE4	; 228
    2a88:	d0 40       	sbci	r29, 0x00	; 0
    2a8a:	cc 51       	subi	r28, 0x1C	; 28
    2a8c:	df 4f       	sbci	r29, 0xFF	; 255
    2a8e:	88 81       	ld	r24, Y
    2a90:	99 81       	ldd	r25, Y+1	; 0x01
    2a92:	aa 81       	ldd	r26, Y+2	; 0x02
    2a94:	bb 81       	ldd	r27, Y+3	; 0x03
    2a96:	c4 5e       	subi	r28, 0xE4	; 228
    2a98:	d0 40       	sbci	r29, 0x00	; 0
    2a9a:	a8 96       	adiw	r28, 0x28	; 40
    2a9c:	8c af       	std	Y+60, r24	; 0x3c
    2a9e:	9d af       	std	Y+61, r25	; 0x3d
    2aa0:	ae af       	std	Y+62, r26	; 0x3e
    2aa2:	bf af       	std	Y+63, r27	; 0x3f
    2aa4:	a8 97       	sbiw	r28, 0x28	; 40

00002aa6 <.LM269>:
    2aa6:	a8 96       	adiw	r28, 0x28	; 40
    2aa8:	6c ad       	ldd	r22, Y+60	; 0x3c
    2aaa:	7d ad       	ldd	r23, Y+61	; 0x3d
    2aac:	8e ad       	ldd	r24, Y+62	; 0x3e
    2aae:	9f ad       	ldd	r25, Y+63	; 0x3f
    2ab0:	a8 97       	sbiw	r28, 0x28	; 40
    2ab2:	0e 94 40 17 	call	0x2e80	; 0x2e80 <__fixunssfsi>
    2ab6:	c8 51       	subi	r28, 0x18	; 24
    2ab8:	df 4f       	sbci	r29, 0xFF	; 255
    2aba:	68 83       	st	Y, r22
    2abc:	79 83       	std	Y+1, r23	; 0x01
    2abe:	8a 83       	std	Y+2, r24	; 0x02
    2ac0:	9b 83       	std	Y+3, r25	; 0x03
    2ac2:	c8 5e       	subi	r28, 0xE8	; 232
    2ac4:	d0 40       	sbci	r29, 0x00	; 0
    2ac6:	c8 51       	subi	r28, 0x18	; 24
    2ac8:	df 4f       	sbci	r29, 0xFF	; 255
    2aca:	a8 81       	ld	r26, Y
    2acc:	b9 81       	ldd	r27, Y+1	; 0x01
    2ace:	c8 5e       	subi	r28, 0xE8	; 232
    2ad0:	d0 40       	sbci	r29, 0x00	; 0
    2ad2:	ba 87       	std	Y+10, r27	; 0x0a
    2ad4:	a9 87       	std	Y+9, r26	; 0x09

00002ad6 <.LM270>:
    2ad6:	10 c0       	rjmp	.+32     	; 0x2af8 <.L153>

00002ad8 <.L154>:
    2ad8:	80 e9       	ldi	r24, 0x90	; 144
    2ada:	91 e0       	ldi	r25, 0x01	; 1
    2adc:	9c 87       	std	Y+12, r25	; 0x0c
    2ade:	8b 87       	std	Y+11, r24	; 0x0b

00002ae0 <.LM271>:
    2ae0:	8b 85       	ldd	r24, Y+11	; 0x0b
    2ae2:	9c 85       	ldd	r25, Y+12	; 0x0c

00002ae4 <.L1^B29>:
    2ae4:	01 97       	sbiw	r24, 0x01	; 1
    2ae6:	f1 f7       	brne	.-4      	; 0x2ae4 <.L1^B29>
    2ae8:	9c 87       	std	Y+12, r25	; 0x0c
    2aea:	8b 87       	std	Y+11, r24	; 0x0b

00002aec <.LM272>:
	...

00002aee <.LM273>:
    2aee:	89 85       	ldd	r24, Y+9	; 0x09
    2af0:	9a 85       	ldd	r25, Y+10	; 0x0a
    2af2:	01 97       	sbiw	r24, 0x01	; 1
    2af4:	9a 87       	std	Y+10, r25	; 0x0a
    2af6:	89 87       	std	Y+9, r24	; 0x09

00002af8 <.L153>:
    2af8:	89 85       	ldd	r24, Y+9	; 0x09
    2afa:	9a 85       	ldd	r25, Y+10	; 0x0a
    2afc:	89 2b       	or	r24, r25
    2afe:	61 f7       	brne	.-40     	; 0x2ad8 <.L154>

00002b00 <.LM275>:
    2b00:	21 c0       	rjmp	.+66     	; 0x2b44 <.L155>

00002b02 <.L183>:
    2b02:	6d 81       	ldd	r22, Y+5	; 0x05
    2b04:	7e 81       	ldd	r23, Y+6	; 0x06
    2b06:	8f 81       	ldd	r24, Y+7	; 0x07
    2b08:	98 85       	ldd	r25, Y+8	; 0x08
    2b0a:	0e 94 40 17 	call	0x2e80	; 0x2e80 <__fixunssfsi>
    2b0e:	c4 51       	subi	r28, 0x14	; 20
    2b10:	df 4f       	sbci	r29, 0xFF	; 255
    2b12:	68 83       	st	Y, r22
    2b14:	79 83       	std	Y+1, r23	; 0x01
    2b16:	8a 83       	std	Y+2, r24	; 0x02
    2b18:	9b 83       	std	Y+3, r25	; 0x03
    2b1a:	cc 5e       	subi	r28, 0xEC	; 236
    2b1c:	d0 40       	sbci	r29, 0x00	; 0
    2b1e:	c4 51       	subi	r28, 0x14	; 20
    2b20:	df 4f       	sbci	r29, 0xFF	; 255
    2b22:	e8 81       	ld	r30, Y
    2b24:	f9 81       	ldd	r31, Y+1	; 0x01
    2b26:	cc 5e       	subi	r28, 0xEC	; 236
    2b28:	d0 40       	sbci	r29, 0x00	; 0
    2b2a:	fa 87       	std	Y+10, r31	; 0x0a
    2b2c:	e9 87       	std	Y+9, r30	; 0x09

00002b2e <.L150>:
    2b2e:	89 85       	ldd	r24, Y+9	; 0x09
    2b30:	9a 85       	ldd	r25, Y+10	; 0x0a
    2b32:	9e 87       	std	Y+14, r25	; 0x0e
    2b34:	8d 87       	std	Y+13, r24	; 0x0d

00002b36 <.LM277>:
    2b36:	8d 85       	ldd	r24, Y+13	; 0x0d
    2b38:	9e 85       	ldd	r25, Y+14	; 0x0e

00002b3a <.L1^B30>:
    2b3a:	01 97       	sbiw	r24, 0x01	; 1
    2b3c:	f1 f7       	brne	.-4      	; 0x2b3a <.L1^B30>
    2b3e:	9e 87       	std	Y+14, r25	; 0x0e
    2b40:	8d 87       	std	Y+13, r24	; 0x0d

00002b42 <.LM278>:
	...

00002b44 <.L155>:
    2b44:	00 00       	nop
    2b46:	c1 51       	subi	r28, 0x11	; 17
    2b48:	df 4f       	sbci	r29, 0xFF	; 255
    2b4a:	0f b6       	in	r0, 0x3f	; 63
    2b4c:	f8 94       	cli
    2b4e:	de bf       	out	0x3e, r29	; 62
    2b50:	0f be       	out	0x3f, r0	; 63
    2b52:	cd bf       	out	0x3d, r28	; 61
    2b54:	df 91       	pop	r29
    2b56:	cf 91       	pop	r28
    2b58:	1f 91       	pop	r17
    2b5a:	0f 91       	pop	r16
    2b5c:	08 95       	ret

00002b5e <LCD_displayString>:
    2b5e:	cf 93       	push	r28
    2b60:	df 93       	push	r29
    2b62:	00 d0       	rcall	.+0      	; 0x2b64 <L0^A>

00002b64 <L0^A>:
    2b64:	0f 92       	push	r0
    2b66:	cd b7       	in	r28, 0x3d	; 61
    2b68:	de b7       	in	r29, 0x3e	; 62
    2b6a:	9b 83       	std	Y+3, r25	; 0x03
    2b6c:	8a 83       	std	Y+2, r24	; 0x02

00002b6e <.LM281>:
    2b6e:	19 82       	std	Y+1, r1	; 0x01

00002b70 <.LM282>:
    2b70:	0e c0       	rjmp	.+28     	; 0x2b8e <.L185>

00002b72 <.L186>:
    2b72:	89 81       	ldd	r24, Y+1	; 0x01
    2b74:	88 2f       	mov	r24, r24
    2b76:	90 e0       	ldi	r25, 0x00	; 0
    2b78:	2a 81       	ldd	r18, Y+2	; 0x02
    2b7a:	3b 81       	ldd	r19, Y+3	; 0x03
    2b7c:	82 0f       	add	r24, r18
    2b7e:	93 1f       	adc	r25, r19

00002b80 <.LM284>:
    2b80:	fc 01       	movw	r30, r24
    2b82:	80 81       	ld	r24, Z
    2b84:	0e 94 1c 0f 	call	0x1e38	; 0x1e38 <LCD_displayCharacter>

00002b88 <.LM285>:
    2b88:	89 81       	ldd	r24, Y+1	; 0x01
    2b8a:	8f 5f       	subi	r24, 0xFF	; 255
    2b8c:	89 83       	std	Y+1, r24	; 0x01

00002b8e <.L185>:
    2b8e:	89 81       	ldd	r24, Y+1	; 0x01
    2b90:	88 2f       	mov	r24, r24
    2b92:	90 e0       	ldi	r25, 0x00	; 0
    2b94:	2a 81       	ldd	r18, Y+2	; 0x02
    2b96:	3b 81       	ldd	r19, Y+3	; 0x03
    2b98:	82 0f       	add	r24, r18
    2b9a:	93 1f       	adc	r25, r19
    2b9c:	fc 01       	movw	r30, r24
    2b9e:	80 81       	ld	r24, Z

00002ba0 <.LM287>:
    2ba0:	88 23       	and	r24, r24
    2ba2:	39 f7       	brne	.-50     	; 0x2b72 <.L186>

00002ba4 <.LM288>:
    2ba4:	00 00       	nop
    2ba6:	00 00       	nop
    2ba8:	0f 90       	pop	r0
    2baa:	0f 90       	pop	r0
    2bac:	0f 90       	pop	r0
    2bae:	df 91       	pop	r29
    2bb0:	cf 91       	pop	r28
    2bb2:	08 95       	ret

00002bb4 <LCD_moveCursor>:
    2bb4:	cf 93       	push	r28
    2bb6:	df 93       	push	r29
    2bb8:	00 d0       	rcall	.+0      	; 0x2bba <L0^A>

00002bba <L0^A>:
    2bba:	0f 92       	push	r0
    2bbc:	cd b7       	in	r28, 0x3d	; 61
    2bbe:	de b7       	in	r29, 0x3e	; 62
    2bc0:	8a 83       	std	Y+2, r24	; 0x02
    2bc2:	6b 83       	std	Y+3, r22	; 0x03

00002bc4 <.LM290>:
    2bc4:	8a 81       	ldd	r24, Y+2	; 0x02
    2bc6:	88 2f       	mov	r24, r24
    2bc8:	90 e0       	ldi	r25, 0x00	; 0
    2bca:	83 30       	cpi	r24, 0x03	; 3
    2bcc:	91 05       	cpc	r25, r1
    2bce:	c9 f0       	breq	.+50     	; 0x2c02 <.L188>
    2bd0:	84 30       	cpi	r24, 0x04	; 4
    2bd2:	91 05       	cpc	r25, r1
    2bd4:	d4 f4       	brge	.+52     	; 0x2c0a <.L189>
    2bd6:	82 30       	cpi	r24, 0x02	; 2
    2bd8:	91 05       	cpc	r25, r1
    2bda:	79 f0       	breq	.+30     	; 0x2bfa <.L190>
    2bdc:	83 30       	cpi	r24, 0x03	; 3
    2bde:	91 05       	cpc	r25, r1
    2be0:	a4 f4       	brge	.+40     	; 0x2c0a <.L189>
    2be2:	00 97       	sbiw	r24, 0x00	; 0
    2be4:	19 f0       	breq	.+6      	; 0x2bec <.L191>
    2be6:	01 97       	sbiw	r24, 0x01	; 1
    2be8:	21 f0       	breq	.+8      	; 0x2bf2 <.L192>
    2bea:	0f c0       	rjmp	.+30     	; 0x2c0a <.L189>

00002bec <.L191>:
    2bec:	8b 81       	ldd	r24, Y+3	; 0x03
    2bee:	89 83       	std	Y+1, r24	; 0x01

00002bf0 <.LM292>:
    2bf0:	0c c0       	rjmp	.+24     	; 0x2c0a <.L189>

00002bf2 <.L192>:
    2bf2:	8b 81       	ldd	r24, Y+3	; 0x03
    2bf4:	80 5c       	subi	r24, 0xC0	; 192
    2bf6:	89 83       	std	Y+1, r24	; 0x01

00002bf8 <.LM294>:
    2bf8:	08 c0       	rjmp	.+16     	; 0x2c0a <.L189>

00002bfa <.L190>:
    2bfa:	8b 81       	ldd	r24, Y+3	; 0x03
    2bfc:	80 5f       	subi	r24, 0xF0	; 240
    2bfe:	89 83       	std	Y+1, r24	; 0x01

00002c00 <.LM296>:
    2c00:	04 c0       	rjmp	.+8      	; 0x2c0a <.L189>

00002c02 <.L188>:
    2c02:	8b 81       	ldd	r24, Y+3	; 0x03
    2c04:	80 5b       	subi	r24, 0xB0	; 176
    2c06:	89 83       	std	Y+1, r24	; 0x01

00002c08 <.LM298>:
	...

00002c0a <.L189>:
    2c0a:	89 81       	ldd	r24, Y+1	; 0x01
    2c0c:	80 68       	ori	r24, 0x80	; 128
    2c0e:	0e 94 89 08 	call	0x1112	; 0x1112 <LCD_sendCommand>

00002c12 <.LM300>:
    2c12:	00 00       	nop
    2c14:	0f 90       	pop	r0
    2c16:	0f 90       	pop	r0
    2c18:	0f 90       	pop	r0
    2c1a:	df 91       	pop	r29
    2c1c:	cf 91       	pop	r28
    2c1e:	08 95       	ret

00002c20 <LCD_displayStringRowColumn>:
    2c20:	cf 93       	push	r28
    2c22:	df 93       	push	r29
    2c24:	00 d0       	rcall	.+0      	; 0x2c26 <L0^A>

00002c26 <L0^A>:
    2c26:	00 d0       	rcall	.+0      	; 0x2c28 <L0^A>

00002c28 <L0^A>:
    2c28:	cd b7       	in	r28, 0x3d	; 61
    2c2a:	de b7       	in	r29, 0x3e	; 62
    2c2c:	89 83       	std	Y+1, r24	; 0x01
    2c2e:	6a 83       	std	Y+2, r22	; 0x02
    2c30:	5c 83       	std	Y+4, r21	; 0x04
    2c32:	4b 83       	std	Y+3, r20	; 0x03

00002c34 <.LM302>:
    2c34:	6a 81       	ldd	r22, Y+2	; 0x02
    2c36:	89 81       	ldd	r24, Y+1	; 0x01
    2c38:	0e 94 da 15 	call	0x2bb4	; 0x2bb4 <LCD_moveCursor>

00002c3c <.LM303>:
    2c3c:	8b 81       	ldd	r24, Y+3	; 0x03
    2c3e:	9c 81       	ldd	r25, Y+4	; 0x04
    2c40:	0e 94 af 15 	call	0x2b5e	; 0x2b5e <LCD_displayString>

00002c44 <.LM304>:
    2c44:	00 00       	nop
    2c46:	0f 90       	pop	r0
    2c48:	0f 90       	pop	r0
    2c4a:	0f 90       	pop	r0
    2c4c:	0f 90       	pop	r0
    2c4e:	df 91       	pop	r29
    2c50:	cf 91       	pop	r28
    2c52:	08 95       	ret

00002c54 <LCD_intgerToString>:
    2c54:	cf 93       	push	r28
    2c56:	df 93       	push	r29
    2c58:	cd b7       	in	r28, 0x3d	; 61
    2c5a:	de b7       	in	r29, 0x3e	; 62
    2c5c:	62 97       	sbiw	r28, 0x12	; 18
    2c5e:	0f b6       	in	r0, 0x3f	; 63
    2c60:	f8 94       	cli
    2c62:	de bf       	out	0x3e, r29	; 62
    2c64:	0f be       	out	0x3f, r0	; 63
    2c66:	cd bf       	out	0x3d, r28	; 61
    2c68:	9a 8b       	std	Y+18, r25	; 0x12
    2c6a:	89 8b       	std	Y+17, r24	; 0x11

00002c6c <.LM306>:
    2c6c:	89 89       	ldd	r24, Y+17	; 0x11
    2c6e:	9a 89       	ldd	r25, Y+18	; 0x12
    2c70:	4a e0       	ldi	r20, 0x0A	; 10
    2c72:	50 e0       	ldi	r21, 0x00	; 0
    2c74:	9e 01       	movw	r18, r28
    2c76:	2f 5f       	subi	r18, 0xFF	; 255
    2c78:	3f 4f       	sbci	r19, 0xFF	; 255
    2c7a:	b9 01       	movw	r22, r18
    2c7c:	0e 94 93 18 	call	0x3126	; 0x3126 <itoa>

00002c80 <.LM307>:
    2c80:	ce 01       	movw	r24, r28
    2c82:	01 96       	adiw	r24, 0x01	; 1
    2c84:	0e 94 af 15 	call	0x2b5e	; 0x2b5e <LCD_displayString>

00002c88 <.LM308>:
    2c88:	00 00       	nop
    2c8a:	62 96       	adiw	r28, 0x12	; 18
    2c8c:	0f b6       	in	r0, 0x3f	; 63
    2c8e:	f8 94       	cli
    2c90:	de bf       	out	0x3e, r29	; 62
    2c92:	0f be       	out	0x3f, r0	; 63
    2c94:	cd bf       	out	0x3d, r28	; 61
    2c96:	df 91       	pop	r29
    2c98:	cf 91       	pop	r28
    2c9a:	08 95       	ret

00002c9c <LCD_clearScreen>:
    2c9c:	cf 93       	push	r28
    2c9e:	df 93       	push	r29
    2ca0:	cd b7       	in	r28, 0x3d	; 61
    2ca2:	de b7       	in	r29, 0x3e	; 62

00002ca4 <.LM310>:
    2ca4:	81 e0       	ldi	r24, 0x01	; 1
    2ca6:	0e 94 89 08 	call	0x1112	; 0x1112 <LCD_sendCommand>

00002caa <.LM311>:
    2caa:	00 00       	nop
    2cac:	df 91       	pop	r29
    2cae:	cf 91       	pop	r28
    2cb0:	08 95       	ret

00002cb2 <LEDS_init>:
    2cb2:	cf 93       	push	r28
    2cb4:	df 93       	push	r29
    2cb6:	cd b7       	in	r28, 0x3d	; 61
    2cb8:	de b7       	in	r29, 0x3e	; 62

00002cba <.LM1>:
    2cba:	41 e0       	ldi	r20, 0x01	; 1
    2cbc:	60 e0       	ldi	r22, 0x00	; 0
    2cbe:	82 e0       	ldi	r24, 0x02	; 2
    2cc0:	0e 94 95 03 	call	0x72a	; 0x72a <GPIO_setupPinDirection>

00002cc4 <.LM2>:
    2cc4:	40 e0       	ldi	r20, 0x00	; 0
    2cc6:	60 e0       	ldi	r22, 0x00	; 0
    2cc8:	82 e0       	ldi	r24, 0x02	; 2
    2cca:	0e 94 86 04 	call	0x90c	; 0x90c <GPIO_writePin>

00002cce <.LM3>:
    2cce:	41 e0       	ldi	r20, 0x01	; 1
    2cd0:	61 e0       	ldi	r22, 0x01	; 1
    2cd2:	82 e0       	ldi	r24, 0x02	; 2
    2cd4:	0e 94 95 03 	call	0x72a	; 0x72a <GPIO_setupPinDirection>

00002cd8 <.LM4>:
    2cd8:	40 e0       	ldi	r20, 0x00	; 0
    2cda:	61 e0       	ldi	r22, 0x01	; 1
    2cdc:	82 e0       	ldi	r24, 0x02	; 2
    2cde:	0e 94 86 04 	call	0x90c	; 0x90c <GPIO_writePin>

00002ce2 <.LM5>:
    2ce2:	41 e0       	ldi	r20, 0x01	; 1
    2ce4:	62 e0       	ldi	r22, 0x02	; 2
    2ce6:	82 e0       	ldi	r24, 0x02	; 2
    2ce8:	0e 94 95 03 	call	0x72a	; 0x72a <GPIO_setupPinDirection>

00002cec <.LM6>:
    2cec:	40 e0       	ldi	r20, 0x00	; 0
    2cee:	62 e0       	ldi	r22, 0x02	; 2
    2cf0:	82 e0       	ldi	r24, 0x02	; 2
    2cf2:	0e 94 86 04 	call	0x90c	; 0x90c <GPIO_writePin>

00002cf6 <.LM7>:
    2cf6:	00 00       	nop
    2cf8:	df 91       	pop	r29
    2cfa:	cf 91       	pop	r28
    2cfc:	08 95       	ret

00002cfe <LED_on>:
    2cfe:	cf 93       	push	r28
    2d00:	df 93       	push	r29
    2d02:	0f 92       	push	r0
    2d04:	cd b7       	in	r28, 0x3d	; 61
    2d06:	de b7       	in	r29, 0x3e	; 62
    2d08:	89 83       	std	Y+1, r24	; 0x01

00002d0a <.LM9>:
    2d0a:	89 81       	ldd	r24, Y+1	; 0x01
    2d0c:	88 23       	and	r24, r24
    2d0e:	31 f4       	brne	.+12     	; 0x2d1c <.L3>

00002d10 <.LM10>:
    2d10:	41 e0       	ldi	r20, 0x01	; 1
    2d12:	60 e0       	ldi	r22, 0x00	; 0
    2d14:	82 e0       	ldi	r24, 0x02	; 2
    2d16:	0e 94 86 04 	call	0x90c	; 0x90c <GPIO_writePin>

00002d1a <.LM11>:
    2d1a:	11 c0       	rjmp	.+34     	; 0x2d3e <.L6>

00002d1c <.L3>:
    2d1c:	89 81       	ldd	r24, Y+1	; 0x01
    2d1e:	81 30       	cpi	r24, 0x01	; 1
    2d20:	31 f4       	brne	.+12     	; 0x2d2e <.L5>

00002d22 <.LM13>:
    2d22:	41 e0       	ldi	r20, 0x01	; 1
    2d24:	61 e0       	ldi	r22, 0x01	; 1
    2d26:	82 e0       	ldi	r24, 0x02	; 2
    2d28:	0e 94 86 04 	call	0x90c	; 0x90c <GPIO_writePin>

00002d2c <.LM14>:
    2d2c:	08 c0       	rjmp	.+16     	; 0x2d3e <.L6>

00002d2e <.L5>:
    2d2e:	89 81       	ldd	r24, Y+1	; 0x01
    2d30:	82 30       	cpi	r24, 0x02	; 2
    2d32:	29 f4       	brne	.+10     	; 0x2d3e <.L6>

00002d34 <.LM16>:
    2d34:	41 e0       	ldi	r20, 0x01	; 1
    2d36:	62 e0       	ldi	r22, 0x02	; 2
    2d38:	82 e0       	ldi	r24, 0x02	; 2
    2d3a:	0e 94 86 04 	call	0x90c	; 0x90c <GPIO_writePin>

00002d3e <.L6>:
    2d3e:	00 00       	nop
    2d40:	0f 90       	pop	r0
    2d42:	df 91       	pop	r29
    2d44:	cf 91       	pop	r28
    2d46:	08 95       	ret

00002d48 <LED_off>:
    2d48:	cf 93       	push	r28
    2d4a:	df 93       	push	r29
    2d4c:	0f 92       	push	r0
    2d4e:	cd b7       	in	r28, 0x3d	; 61
    2d50:	de b7       	in	r29, 0x3e	; 62
    2d52:	89 83       	std	Y+1, r24	; 0x01

00002d54 <.LM19>:
    2d54:	89 81       	ldd	r24, Y+1	; 0x01
    2d56:	88 23       	and	r24, r24
    2d58:	31 f4       	brne	.+12     	; 0x2d66 <.L8>

00002d5a <.LM20>:
    2d5a:	40 e0       	ldi	r20, 0x00	; 0
    2d5c:	60 e0       	ldi	r22, 0x00	; 0
    2d5e:	82 e0       	ldi	r24, 0x02	; 2
    2d60:	0e 94 86 04 	call	0x90c	; 0x90c <GPIO_writePin>

00002d64 <.LM21>:
    2d64:	11 c0       	rjmp	.+34     	; 0x2d88 <.L11>

00002d66 <.L8>:
    2d66:	89 81       	ldd	r24, Y+1	; 0x01
    2d68:	81 30       	cpi	r24, 0x01	; 1
    2d6a:	31 f4       	brne	.+12     	; 0x2d78 <.L10>

00002d6c <.LM23>:
    2d6c:	40 e0       	ldi	r20, 0x00	; 0
    2d6e:	61 e0       	ldi	r22, 0x01	; 1
    2d70:	82 e0       	ldi	r24, 0x02	; 2
    2d72:	0e 94 86 04 	call	0x90c	; 0x90c <GPIO_writePin>

00002d76 <.LM24>:
    2d76:	08 c0       	rjmp	.+16     	; 0x2d88 <.L11>

00002d78 <.L10>:
    2d78:	89 81       	ldd	r24, Y+1	; 0x01
    2d7a:	82 30       	cpi	r24, 0x02	; 2
    2d7c:	29 f4       	brne	.+10     	; 0x2d88 <.L11>

00002d7e <.LM26>:
    2d7e:	40 e0       	ldi	r20, 0x00	; 0
    2d80:	62 e0       	ldi	r22, 0x02	; 2
    2d82:	82 e0       	ldi	r24, 0x02	; 2
    2d84:	0e 94 86 04 	call	0x90c	; 0x90c <GPIO_writePin>

00002d88 <.L11>:
    2d88:	00 00       	nop
    2d8a:	0f 90       	pop	r0
    2d8c:	df 91       	pop	r29
    2d8e:	cf 91       	pop	r28
    2d90:	08 95       	ret

00002d92 <__cmpsf2>:
    2d92:	0e 94 ac 17 	call	0x2f58	; 0x2f58 <__fp_cmp>
    2d96:	08 f4       	brcc	.+2      	; 0x2d9a <.L1^B1>
    2d98:	81 e0       	ldi	r24, 0x01	; 1

00002d9a <.L1^B1>:
    2d9a:	08 95       	ret

00002d9c <__divsf3>:
    2d9c:	0e 94 e2 16 	call	0x2dc4	; 0x2dc4 <__divsf3x>
    2da0:	0c 94 e7 17 	jmp	0x2fce	; 0x2fce <__fp_round>

00002da4 <.L0^B1>:
    2da4:	0e 94 e0 17 	call	0x2fc0	; 0x2fc0 <__fp_pscB>
    2da8:	58 f0       	brcs	.+22     	; 0x2dc0 <.L_nan>
    2daa:	0e 94 d9 17 	call	0x2fb2	; 0x2fb2 <__fp_pscA>
    2dae:	40 f0       	brcs	.+16     	; 0x2dc0 <.L_nan>
    2db0:	29 f4       	brne	.+10     	; 0x2dbc <.L_zr>
    2db2:	5f 3f       	cpi	r21, 0xFF	; 255
    2db4:	29 f0       	breq	.+10     	; 0x2dc0 <.L_nan>

00002db6 <.L_inf>:
    2db6:	0c 94 d0 17 	jmp	0x2fa0	; 0x2fa0 <__fp_inf>

00002dba <.L1^B1>:
    2dba:	51 11       	cpse	r21, r1

00002dbc <.L_zr>:
    2dbc:	0c 94 1b 18 	jmp	0x3036	; 0x3036 <__fp_szero>

00002dc0 <.L_nan>:
    2dc0:	0c 94 d6 17 	jmp	0x2fac	; 0x2fac <__fp_nan>

00002dc4 <__divsf3x>:
    2dc4:	0e 94 f8 17 	call	0x2ff0	; 0x2ff0 <__fp_split3>
    2dc8:	68 f3       	brcs	.-38     	; 0x2da4 <.L0^B1>

00002dca <__divsf3_pse>:
    2dca:	99 23       	and	r25, r25
    2dcc:	b1 f3       	breq	.-20     	; 0x2dba <.L1^B1>
    2dce:	55 23       	and	r21, r21
    2dd0:	91 f3       	breq	.-28     	; 0x2db6 <.L_inf>
    2dd2:	95 1b       	sub	r25, r21
    2dd4:	55 0b       	sbc	r21, r21
    2dd6:	bb 27       	eor	r27, r27
    2dd8:	aa 27       	eor	r26, r26

00002dda <.L2^B1>:
    2dda:	62 17       	cp	r22, r18
    2ddc:	73 07       	cpc	r23, r19
    2dde:	84 07       	cpc	r24, r20
    2de0:	38 f0       	brcs	.+14     	; 0x2df0 <.L3^B1>
    2de2:	9f 5f       	subi	r25, 0xFF	; 255
    2de4:	5f 4f       	sbci	r21, 0xFF	; 255
    2de6:	22 0f       	add	r18, r18
    2de8:	33 1f       	adc	r19, r19
    2dea:	44 1f       	adc	r20, r20
    2dec:	aa 1f       	adc	r26, r26
    2dee:	a9 f3       	breq	.-22     	; 0x2dda <.L2^B1>

00002df0 <.L3^B1>:
    2df0:	35 d0       	rcall	.+106    	; 0x2e5c <.L_div>
    2df2:	0e 2e       	mov	r0, r30
    2df4:	3a f0       	brmi	.+14     	; 0x2e04 <.L5^B1>

00002df6 <.L4^B1>:
    2df6:	e0 e8       	ldi	r30, 0x80	; 128
    2df8:	32 d0       	rcall	.+100    	; 0x2e5e <.L_div1>
    2dfa:	91 50       	subi	r25, 0x01	; 1
    2dfc:	50 40       	sbci	r21, 0x00	; 0
    2dfe:	e6 95       	lsr	r30
    2e00:	00 1c       	adc	r0, r0
    2e02:	ca f7       	brpl	.-14     	; 0x2df6 <.L4^B1>

00002e04 <.L5^B1>:
    2e04:	2b d0       	rcall	.+86     	; 0x2e5c <.L_div>
    2e06:	fe 2f       	mov	r31, r30
    2e08:	29 d0       	rcall	.+82     	; 0x2e5c <.L_div>
    2e0a:	66 0f       	add	r22, r22
    2e0c:	77 1f       	adc	r23, r23
    2e0e:	88 1f       	adc	r24, r24
    2e10:	bb 1f       	adc	r27, r27
    2e12:	26 17       	cp	r18, r22
    2e14:	37 07       	cpc	r19, r23
    2e16:	48 07       	cpc	r20, r24
    2e18:	ab 07       	cpc	r26, r27
    2e1a:	b0 e8       	ldi	r27, 0x80	; 128
    2e1c:	09 f0       	breq	.+2      	; 0x2e20 <.L4^B2>
    2e1e:	bb 0b       	sbc	r27, r27

00002e20 <.L4^B2>:
    2e20:	80 2d       	mov	r24, r0
    2e22:	bf 01       	movw	r22, r30
    2e24:	ff 27       	eor	r31, r31
    2e26:	93 58       	subi	r25, 0x83	; 131
    2e28:	5f 4f       	sbci	r21, 0xFF	; 255
    2e2a:	3a f0       	brmi	.+14     	; 0x2e3a <.L13^B1>
    2e2c:	9e 3f       	cpi	r25, 0xFE	; 254
    2e2e:	51 05       	cpc	r21, r1
    2e30:	78 f0       	brcs	.+30     	; 0x2e50 <.L15^B1>
    2e32:	0c 94 d0 17 	jmp	0x2fa0	; 0x2fa0 <__fp_inf>

00002e36 <.L12^B1>:
    2e36:	0c 94 1b 18 	jmp	0x3036	; 0x3036 <__fp_szero>

00002e3a <.L13^B1>:
    2e3a:	5f 3f       	cpi	r21, 0xFF	; 255
    2e3c:	e4 f3       	brlt	.-8      	; 0x2e36 <.L12^B1>
    2e3e:	98 3e       	cpi	r25, 0xE8	; 232
    2e40:	d4 f3       	brlt	.-12     	; 0x2e36 <.L12^B1>

00002e42 <.L14^B1>:
    2e42:	86 95       	lsr	r24
    2e44:	77 95       	ror	r23
    2e46:	67 95       	ror	r22
    2e48:	b7 95       	ror	r27
    2e4a:	f7 95       	ror	r31
    2e4c:	9f 5f       	subi	r25, 0xFF	; 255
    2e4e:	c9 f7       	brne	.-14     	; 0x2e42 <.L14^B1>

00002e50 <.L15^B1>:
    2e50:	88 0f       	add	r24, r24
    2e52:	91 1d       	adc	r25, r1
    2e54:	96 95       	lsr	r25
    2e56:	87 95       	ror	r24
    2e58:	97 f9       	bld	r25, 7
    2e5a:	08 95       	ret

00002e5c <.L_div>:
    2e5c:	e1 e0       	ldi	r30, 0x01	; 1

00002e5e <.L_div1>:
    2e5e:	66 0f       	add	r22, r22
    2e60:	77 1f       	adc	r23, r23
    2e62:	88 1f       	adc	r24, r24
    2e64:	bb 1f       	adc	r27, r27
    2e66:	62 17       	cp	r22, r18
    2e68:	73 07       	cpc	r23, r19
    2e6a:	84 07       	cpc	r24, r20
    2e6c:	ba 07       	cpc	r27, r26
    2e6e:	20 f0       	brcs	.+8      	; 0x2e78 <.L2^B2>
    2e70:	62 1b       	sub	r22, r18
    2e72:	73 0b       	sbc	r23, r19
    2e74:	84 0b       	sbc	r24, r20
    2e76:	ba 0b       	sbc	r27, r26

00002e78 <.L2^B2>:
    2e78:	ee 1f       	adc	r30, r30
    2e7a:	88 f7       	brcc	.-30     	; 0x2e5e <.L_div1>
    2e7c:	e0 95       	com	r30
    2e7e:	08 95       	ret

00002e80 <__fixunssfsi>:
    2e80:	0e 94 00 18 	call	0x3000	; 0x3000 <__fp_splitA>
    2e84:	88 f0       	brcs	.+34     	; 0x2ea8 <.L_err>
    2e86:	9f 57       	subi	r25, 0x7F	; 127
    2e88:	98 f0       	brcs	.+38     	; 0x2eb0 <.L_zr>
    2e8a:	b9 2f       	mov	r27, r25
    2e8c:	99 27       	eor	r25, r25
    2e8e:	b7 51       	subi	r27, 0x17	; 23
    2e90:	b0 f0       	brcs	.+44     	; 0x2ebe <.L4^B1>
    2e92:	e1 f0       	breq	.+56     	; 0x2ecc <.L_sign>

00002e94 <.L1^B1>:
    2e94:	66 0f       	add	r22, r22
    2e96:	77 1f       	adc	r23, r23
    2e98:	88 1f       	adc	r24, r24
    2e9a:	99 1f       	adc	r25, r25
    2e9c:	1a f0       	brmi	.+6      	; 0x2ea4 <.L2^B1>
    2e9e:	ba 95       	dec	r27
    2ea0:	c9 f7       	brne	.-14     	; 0x2e94 <.L1^B1>
    2ea2:	14 c0       	rjmp	.+40     	; 0x2ecc <.L_sign>

00002ea4 <.L2^B1>:
    2ea4:	b1 30       	cpi	r27, 0x01	; 1
    2ea6:	91 f0       	breq	.+36     	; 0x2ecc <.L_sign>

00002ea8 <.L_err>:
    2ea8:	0e 94 1a 18 	call	0x3034	; 0x3034 <__fp_zero>
    2eac:	b1 e0       	ldi	r27, 0x01	; 1
    2eae:	08 95       	ret

00002eb0 <.L_zr>:
    2eb0:	0c 94 1a 18 	jmp	0x3034	; 0x3034 <__fp_zero>

00002eb4 <.L3^B1>:
    2eb4:	67 2f       	mov	r22, r23
    2eb6:	78 2f       	mov	r23, r24
    2eb8:	88 27       	eor	r24, r24
    2eba:	b8 5f       	subi	r27, 0xF8	; 248
    2ebc:	39 f0       	breq	.+14     	; 0x2ecc <.L_sign>

00002ebe <.L4^B1>:
    2ebe:	b9 3f       	cpi	r27, 0xF9	; 249
    2ec0:	cc f3       	brlt	.-14     	; 0x2eb4 <.L3^B1>

00002ec2 <.L5^B1>:
    2ec2:	86 95       	lsr	r24
    2ec4:	77 95       	ror	r23
    2ec6:	67 95       	ror	r22
    2ec8:	b3 95       	inc	r27
    2eca:	d9 f7       	brne	.-10     	; 0x2ec2 <.L5^B1>

00002ecc <.L_sign>:
    2ecc:	3e f4       	brtc	.+14     	; 0x2edc <.L6^B1>
    2ece:	90 95       	com	r25
    2ed0:	80 95       	com	r24
    2ed2:	70 95       	com	r23
    2ed4:	61 95       	neg	r22
    2ed6:	7f 4f       	sbci	r23, 0xFF	; 255
    2ed8:	8f 4f       	sbci	r24, 0xFF	; 255
    2eda:	9f 4f       	sbci	r25, 0xFF	; 255

00002edc <.L6^B1>:
    2edc:	08 95       	ret

00002ede <__floatunsisf>:
    2ede:	e8 94       	clt
    2ee0:	09 c0       	rjmp	.+18     	; 0x2ef4 <.L1^B1>

00002ee2 <__floatsisf>:
    2ee2:	97 fb       	bst	r25, 7
    2ee4:	3e f4       	brtc	.+14     	; 0x2ef4 <.L1^B1>
    2ee6:	90 95       	com	r25
    2ee8:	80 95       	com	r24
    2eea:	70 95       	com	r23
    2eec:	61 95       	neg	r22
    2eee:	7f 4f       	sbci	r23, 0xFF	; 255
    2ef0:	8f 4f       	sbci	r24, 0xFF	; 255
    2ef2:	9f 4f       	sbci	r25, 0xFF	; 255

00002ef4 <.L1^B1>:
    2ef4:	99 23       	and	r25, r25
    2ef6:	a9 f0       	breq	.+42     	; 0x2f22 <.L4^B1>
    2ef8:	f9 2f       	mov	r31, r25
    2efa:	96 e9       	ldi	r25, 0x96	; 150
    2efc:	bb 27       	eor	r27, r27

00002efe <.L2^B1>:
    2efe:	93 95       	inc	r25
    2f00:	f6 95       	lsr	r31
    2f02:	87 95       	ror	r24
    2f04:	77 95       	ror	r23
    2f06:	67 95       	ror	r22
    2f08:	b7 95       	ror	r27
    2f0a:	f1 11       	cpse	r31, r1
    2f0c:	f8 cf       	rjmp	.-16     	; 0x2efe <.L2^B1>
    2f0e:	fa f4       	brpl	.+62     	; 0x2f4e <.L_pack>
    2f10:	bb 0f       	add	r27, r27
    2f12:	11 f4       	brne	.+4      	; 0x2f18 <.L3^B1>
    2f14:	60 ff       	sbrs	r22, 0
    2f16:	1b c0       	rjmp	.+54     	; 0x2f4e <.L_pack>

00002f18 <.L3^B1>:
    2f18:	6f 5f       	subi	r22, 0xFF	; 255
    2f1a:	7f 4f       	sbci	r23, 0xFF	; 255
    2f1c:	8f 4f       	sbci	r24, 0xFF	; 255
    2f1e:	9f 4f       	sbci	r25, 0xFF	; 255
    2f20:	16 c0       	rjmp	.+44     	; 0x2f4e <.L_pack>

00002f22 <.L4^B1>:
    2f22:	88 23       	and	r24, r24
    2f24:	11 f0       	breq	.+4      	; 0x2f2a <.L5^B1>
    2f26:	96 e9       	ldi	r25, 0x96	; 150
    2f28:	11 c0       	rjmp	.+34     	; 0x2f4c <.L8^B1>

00002f2a <.L5^B1>:
    2f2a:	77 23       	and	r23, r23
    2f2c:	21 f0       	breq	.+8      	; 0x2f36 <.L6^B1>
    2f2e:	9e e8       	ldi	r25, 0x8E	; 142
    2f30:	87 2f       	mov	r24, r23
    2f32:	76 2f       	mov	r23, r22
    2f34:	05 c0       	rjmp	.+10     	; 0x2f40 <.L7^B1>

00002f36 <.L6^B1>:
    2f36:	66 23       	and	r22, r22
    2f38:	71 f0       	breq	.+28     	; 0x2f56 <.L9^B1>
    2f3a:	96 e8       	ldi	r25, 0x86	; 134
    2f3c:	86 2f       	mov	r24, r22
    2f3e:	70 e0       	ldi	r23, 0x00	; 0

00002f40 <.L7^B1>:
    2f40:	60 e0       	ldi	r22, 0x00	; 0
    2f42:	2a f0       	brmi	.+10     	; 0x2f4e <.L_pack>

00002f44 <.L10^B1>:
    2f44:	9a 95       	dec	r25
    2f46:	66 0f       	add	r22, r22
    2f48:	77 1f       	adc	r23, r23
    2f4a:	88 1f       	adc	r24, r24

00002f4c <.L8^B1>:
    2f4c:	da f7       	brpl	.-10     	; 0x2f44 <.L10^B1>

00002f4e <.L_pack>:
    2f4e:	88 0f       	add	r24, r24
    2f50:	96 95       	lsr	r25
    2f52:	87 95       	ror	r24
    2f54:	97 f9       	bld	r25, 7

00002f56 <.L9^B1>:
    2f56:	08 95       	ret

00002f58 <__fp_cmp>:
    2f58:	99 0f       	add	r25, r25
    2f5a:	00 08       	sbc	r0, r0
    2f5c:	55 0f       	add	r21, r21
    2f5e:	aa 0b       	sbc	r26, r26
    2f60:	e0 e8       	ldi	r30, 0x80	; 128
    2f62:	fe ef       	ldi	r31, 0xFE	; 254
    2f64:	16 16       	cp	r1, r22
    2f66:	17 06       	cpc	r1, r23
    2f68:	e8 07       	cpc	r30, r24
    2f6a:	f9 07       	cpc	r31, r25
    2f6c:	c0 f0       	brcs	.+48     	; 0x2f9e <.L9^B1>
    2f6e:	12 16       	cp	r1, r18
    2f70:	13 06       	cpc	r1, r19
    2f72:	e4 07       	cpc	r30, r20
    2f74:	f5 07       	cpc	r31, r21
    2f76:	98 f0       	brcs	.+38     	; 0x2f9e <.L9^B1>
    2f78:	62 1b       	sub	r22, r18
    2f7a:	73 0b       	sbc	r23, r19
    2f7c:	84 0b       	sbc	r24, r20
    2f7e:	95 0b       	sbc	r25, r21
    2f80:	39 f4       	brne	.+14     	; 0x2f90 <.L1^B1>
    2f82:	0a 26       	eor	r0, r26
    2f84:	61 f0       	breq	.+24     	; 0x2f9e <.L9^B1>
    2f86:	23 2b       	or	r18, r19
    2f88:	24 2b       	or	r18, r20
    2f8a:	25 2b       	or	r18, r21
    2f8c:	21 f4       	brne	.+8      	; 0x2f96 <.L2^B1>
    2f8e:	08 95       	ret

00002f90 <.L1^B1>:
    2f90:	0a 26       	eor	r0, r26
    2f92:	09 f4       	brne	.+2      	; 0x2f96 <.L2^B1>
    2f94:	a1 40       	sbci	r26, 0x01	; 1

00002f96 <.L2^B1>:
    2f96:	a6 95       	lsr	r26
    2f98:	8f ef       	ldi	r24, 0xFF	; 255
    2f9a:	81 1d       	adc	r24, r1
    2f9c:	81 1d       	adc	r24, r1

00002f9e <.L9^B1>:
    2f9e:	08 95       	ret

00002fa0 <__fp_inf>:
    2fa0:	97 f9       	bld	r25, 7
    2fa2:	9f 67       	ori	r25, 0x7F	; 127
    2fa4:	80 e8       	ldi	r24, 0x80	; 128
    2fa6:	70 e0       	ldi	r23, 0x00	; 0
    2fa8:	60 e0       	ldi	r22, 0x00	; 0
    2faa:	08 95       	ret

00002fac <__fp_nan>:
    2fac:	9f ef       	ldi	r25, 0xFF	; 255
    2fae:	80 ec       	ldi	r24, 0xC0	; 192
    2fb0:	08 95       	ret

00002fb2 <__fp_pscA>:
    2fb2:	00 24       	eor	r0, r0
    2fb4:	0a 94       	dec	r0
    2fb6:	16 16       	cp	r1, r22
    2fb8:	17 06       	cpc	r1, r23
    2fba:	18 06       	cpc	r1, r24
    2fbc:	09 06       	cpc	r0, r25
    2fbe:	08 95       	ret

00002fc0 <__fp_pscB>:
    2fc0:	00 24       	eor	r0, r0
    2fc2:	0a 94       	dec	r0
    2fc4:	12 16       	cp	r1, r18
    2fc6:	13 06       	cpc	r1, r19
    2fc8:	14 06       	cpc	r1, r20
    2fca:	05 06       	cpc	r0, r21
    2fcc:	08 95       	ret

00002fce <__fp_round>:
    2fce:	09 2e       	mov	r0, r25
    2fd0:	03 94       	inc	r0
    2fd2:	00 0c       	add	r0, r0
    2fd4:	11 f4       	brne	.+4      	; 0x2fda <.L1^B1>
    2fd6:	88 23       	and	r24, r24
    2fd8:	52 f0       	brmi	.+20     	; 0x2fee <.L3^B1>

00002fda <.L1^B1>:
    2fda:	bb 0f       	add	r27, r27
    2fdc:	40 f4       	brcc	.+16     	; 0x2fee <.L3^B1>
    2fde:	bf 2b       	or	r27, r31
    2fe0:	11 f4       	brne	.+4      	; 0x2fe6 <.L2^B1>
    2fe2:	60 ff       	sbrs	r22, 0
    2fe4:	04 c0       	rjmp	.+8      	; 0x2fee <.L3^B1>

00002fe6 <.L2^B1>:
    2fe6:	6f 5f       	subi	r22, 0xFF	; 255
    2fe8:	7f 4f       	sbci	r23, 0xFF	; 255
    2fea:	8f 4f       	sbci	r24, 0xFF	; 255
    2fec:	9f 4f       	sbci	r25, 0xFF	; 255

00002fee <.L3^B1>:
    2fee:	08 95       	ret

00002ff0 <__fp_split3>:
    2ff0:	57 fd       	sbrc	r21, 7
    2ff2:	90 58       	subi	r25, 0x80	; 128
    2ff4:	44 0f       	add	r20, r20
    2ff6:	55 1f       	adc	r21, r21
    2ff8:	59 f0       	breq	.+22     	; 0x3010 <.L4^B1>
    2ffa:	5f 3f       	cpi	r21, 0xFF	; 255
    2ffc:	71 f0       	breq	.+28     	; 0x301a <.L5^B1>

00002ffe <.L1^B1>:
    2ffe:	47 95       	ror	r20

00003000 <__fp_splitA>:
    3000:	88 0f       	add	r24, r24
    3002:	97 fb       	bst	r25, 7
    3004:	99 1f       	adc	r25, r25
    3006:	61 f0       	breq	.+24     	; 0x3020 <.L6^B1>
    3008:	9f 3f       	cpi	r25, 0xFF	; 255
    300a:	79 f0       	breq	.+30     	; 0x302a <.L7^B1>

0000300c <.L3^B1>:
    300c:	87 95       	ror	r24
    300e:	08 95       	ret

00003010 <.L4^B1>:
    3010:	12 16       	cp	r1, r18
    3012:	13 06       	cpc	r1, r19
    3014:	14 06       	cpc	r1, r20
    3016:	55 1f       	adc	r21, r21
    3018:	f2 cf       	rjmp	.-28     	; 0x2ffe <.L1^B1>

0000301a <.L5^B1>:
    301a:	46 95       	lsr	r20
    301c:	f1 df       	rcall	.-30     	; 0x3000 <__fp_splitA>
    301e:	08 c0       	rjmp	.+16     	; 0x3030 <.L8^B1>

00003020 <.L6^B1>:
    3020:	16 16       	cp	r1, r22
    3022:	17 06       	cpc	r1, r23
    3024:	18 06       	cpc	r1, r24
    3026:	99 1f       	adc	r25, r25
    3028:	f1 cf       	rjmp	.-30     	; 0x300c <.L3^B1>

0000302a <.L7^B1>:
    302a:	86 95       	lsr	r24
    302c:	71 05       	cpc	r23, r1
    302e:	61 05       	cpc	r22, r1

00003030 <.L8^B1>:
    3030:	08 94       	sec
    3032:	08 95       	ret

00003034 <__fp_zero>:
    3034:	e8 94       	clt

00003036 <__fp_szero>:
    3036:	bb 27       	eor	r27, r27
    3038:	66 27       	eor	r22, r22
    303a:	77 27       	eor	r23, r23
    303c:	cb 01       	movw	r24, r22
    303e:	97 f9       	bld	r25, 7
    3040:	08 95       	ret

00003042 <__gesf2>:
    3042:	0e 94 ac 17 	call	0x2f58	; 0x2f58 <__fp_cmp>
    3046:	08 f4       	brcc	.+2      	; 0x304a <.L1^B1>
    3048:	8f ef       	ldi	r24, 0xFF	; 255

0000304a <.L1^B1>:
    304a:	08 95       	ret

0000304c <__mulsf3>:
    304c:	0e 94 39 18 	call	0x3072	; 0x3072 <__mulsf3x>
    3050:	0c 94 e7 17 	jmp	0x2fce	; 0x2fce <__fp_round>

00003054 <.L0^B1>:
    3054:	0e 94 d9 17 	call	0x2fb2	; 0x2fb2 <__fp_pscA>
    3058:	38 f0       	brcs	.+14     	; 0x3068 <.L1^B1>
    305a:	0e 94 e0 17 	call	0x2fc0	; 0x2fc0 <__fp_pscB>
    305e:	20 f0       	brcs	.+8      	; 0x3068 <.L1^B1>
    3060:	95 23       	and	r25, r21
    3062:	11 f0       	breq	.+4      	; 0x3068 <.L1^B1>
    3064:	0c 94 d0 17 	jmp	0x2fa0	; 0x2fa0 <__fp_inf>

00003068 <.L1^B1>:
    3068:	0c 94 d6 17 	jmp	0x2fac	; 0x2fac <__fp_nan>

0000306c <.L2^B1>:
    306c:	11 24       	eor	r1, r1
    306e:	0c 94 1b 18 	jmp	0x3036	; 0x3036 <__fp_szero>

00003072 <__mulsf3x>:
    3072:	0e 94 f8 17 	call	0x2ff0	; 0x2ff0 <__fp_split3>
    3076:	70 f3       	brcs	.-36     	; 0x3054 <.L0^B1>

00003078 <__mulsf3_pse>:
    3078:	95 9f       	mul	r25, r21
    307a:	c1 f3       	breq	.-16     	; 0x306c <.L2^B1>
    307c:	95 0f       	add	r25, r21
    307e:	50 e0       	ldi	r21, 0x00	; 0
    3080:	55 1f       	adc	r21, r21
    3082:	62 9f       	mul	r22, r18
    3084:	f0 01       	movw	r30, r0
    3086:	72 9f       	mul	r23, r18
    3088:	bb 27       	eor	r27, r27
    308a:	f0 0d       	add	r31, r0
    308c:	b1 1d       	adc	r27, r1
    308e:	63 9f       	mul	r22, r19
    3090:	aa 27       	eor	r26, r26
    3092:	f0 0d       	add	r31, r0
    3094:	b1 1d       	adc	r27, r1
    3096:	aa 1f       	adc	r26, r26
    3098:	64 9f       	mul	r22, r20
    309a:	66 27       	eor	r22, r22
    309c:	b0 0d       	add	r27, r0
    309e:	a1 1d       	adc	r26, r1
    30a0:	66 1f       	adc	r22, r22
    30a2:	82 9f       	mul	r24, r18
    30a4:	22 27       	eor	r18, r18
    30a6:	b0 0d       	add	r27, r0
    30a8:	a1 1d       	adc	r26, r1
    30aa:	62 1f       	adc	r22, r18
    30ac:	73 9f       	mul	r23, r19
    30ae:	b0 0d       	add	r27, r0
    30b0:	a1 1d       	adc	r26, r1
    30b2:	62 1f       	adc	r22, r18
    30b4:	83 9f       	mul	r24, r19
    30b6:	a0 0d       	add	r26, r0
    30b8:	61 1d       	adc	r22, r1
    30ba:	22 1f       	adc	r18, r18
    30bc:	74 9f       	mul	r23, r20
    30be:	33 27       	eor	r19, r19
    30c0:	a0 0d       	add	r26, r0
    30c2:	61 1d       	adc	r22, r1
    30c4:	23 1f       	adc	r18, r19
    30c6:	84 9f       	mul	r24, r20
    30c8:	60 0d       	add	r22, r0
    30ca:	21 1d       	adc	r18, r1
    30cc:	82 2f       	mov	r24, r18
    30ce:	76 2f       	mov	r23, r22
    30d0:	6a 2f       	mov	r22, r26
    30d2:	11 24       	eor	r1, r1
    30d4:	9f 57       	subi	r25, 0x7F	; 127
    30d6:	50 40       	sbci	r21, 0x00	; 0
    30d8:	9a f0       	brmi	.+38     	; 0x3100 <.L13^B1>
    30da:	f1 f0       	breq	.+60     	; 0x3118 <.L15^B1>

000030dc <.L10^B1>:
    30dc:	88 23       	and	r24, r24
    30de:	4a f0       	brmi	.+18     	; 0x30f2 <.L11^B1>
    30e0:	ee 0f       	add	r30, r30
    30e2:	ff 1f       	adc	r31, r31
    30e4:	bb 1f       	adc	r27, r27
    30e6:	66 1f       	adc	r22, r22
    30e8:	77 1f       	adc	r23, r23
    30ea:	88 1f       	adc	r24, r24
    30ec:	91 50       	subi	r25, 0x01	; 1
    30ee:	50 40       	sbci	r21, 0x00	; 0
    30f0:	a9 f7       	brne	.-22     	; 0x30dc <.L10^B1>

000030f2 <.L11^B1>:
    30f2:	9e 3f       	cpi	r25, 0xFE	; 254
    30f4:	51 05       	cpc	r21, r1
    30f6:	80 f0       	brcs	.+32     	; 0x3118 <.L15^B1>
    30f8:	0c 94 d0 17 	jmp	0x2fa0	; 0x2fa0 <__fp_inf>

000030fc <.L12^B1>:
    30fc:	0c 94 1b 18 	jmp	0x3036	; 0x3036 <__fp_szero>

00003100 <.L13^B1>:
    3100:	5f 3f       	cpi	r21, 0xFF	; 255
    3102:	e4 f3       	brlt	.-8      	; 0x30fc <.L12^B1>
    3104:	98 3e       	cpi	r25, 0xE8	; 232
    3106:	d4 f3       	brlt	.-12     	; 0x30fc <.L12^B1>

00003108 <.L14^B1>:
    3108:	86 95       	lsr	r24
    310a:	77 95       	ror	r23
    310c:	67 95       	ror	r22
    310e:	b7 95       	ror	r27
    3110:	f7 95       	ror	r31
    3112:	e7 95       	ror	r30
    3114:	9f 5f       	subi	r25, 0xFF	; 255
    3116:	c1 f7       	brne	.-16     	; 0x3108 <.L14^B1>

00003118 <.L15^B1>:
    3118:	fe 2b       	or	r31, r30
    311a:	88 0f       	add	r24, r24
    311c:	91 1d       	adc	r25, r1
    311e:	96 95       	lsr	r25
    3120:	87 95       	ror	r24
    3122:	97 f9       	bld	r25, 7
    3124:	08 95       	ret

00003126 <itoa>:
    3126:	45 32       	cpi	r20, 0x25	; 37
    3128:	51 05       	cpc	r21, r1
    312a:	20 f4       	brcc	.+8      	; 0x3134 <.L1^B1>
    312c:	42 30       	cpi	r20, 0x02	; 2
    312e:	10 f0       	brcs	.+4      	; 0x3134 <.L1^B1>
    3130:	0c 94 9e 18 	jmp	0x313c	; 0x313c <__itoa_ncheck>

00003134 <.L1^B1>:
    3134:	fb 01       	movw	r30, r22
    3136:	10 82       	st	Z, r1
    3138:	cb 01       	movw	r24, r22
    313a:	08 95       	ret

0000313c <__itoa_ncheck>:
    313c:	bb 27       	eor	r27, r27
    313e:	4a 30       	cpi	r20, 0x0A	; 10
    3140:	31 f4       	brne	.+12     	; 0x314e <.L1^B1>
    3142:	99 23       	and	r25, r25
    3144:	22 f4       	brpl	.+8      	; 0x314e <.L1^B1>
    3146:	bd e2       	ldi	r27, 0x2D	; 45
    3148:	90 95       	com	r25
    314a:	81 95       	neg	r24
    314c:	9f 4f       	sbci	r25, 0xFF	; 255

0000314e <.L1^B1>:
    314e:	0c 94 aa 18 	jmp	0x3154	; 0x3154 <__utoa_common>

00003152 <__utoa_ncheck>:
    3152:	bb 27       	eor	r27, r27

00003154 <__utoa_common>:
    3154:	fb 01       	movw	r30, r22
    3156:	55 27       	eor	r21, r21

00003158 <.L1^B1>:
    3158:	aa 27       	eor	r26, r26

0000315a <.L2^B1>:
    315a:	88 0f       	add	r24, r24
    315c:	99 1f       	adc	r25, r25
    315e:	aa 1f       	adc	r26, r26
    3160:	a4 17       	cp	r26, r20
    3162:	10 f0       	brcs	.+4      	; 0x3168 <.L3^B1>
    3164:	a4 1b       	sub	r26, r20
    3166:	83 95       	inc	r24

00003168 <.L3^B1>:
    3168:	50 51       	subi	r21, 0x10	; 16
    316a:	b9 f7       	brne	.-18     	; 0x315a <.L2^B1>
    316c:	a0 5d       	subi	r26, 0xD0	; 208
    316e:	aa 33       	cpi	r26, 0x3A	; 58
    3170:	08 f0       	brcs	.+2      	; 0x3174 <.L4^B1>
    3172:	a9 5d       	subi	r26, 0xD9	; 217

00003174 <.L4^B1>:
    3174:	a1 93       	st	Z+, r26
    3176:	00 97       	sbiw	r24, 0x00	; 0
    3178:	79 f7       	brne	.-34     	; 0x3158 <.L1^B1>
    317a:	b1 11       	cpse	r27, r1
    317c:	b1 93       	st	Z+, r27
    317e:	11 92       	st	Z+, r1
    3180:	cb 01       	movw	r24, r22
    3182:	0c 94 c3 18 	jmp	0x3186	; 0x3186 <strrev>

00003186 <strrev>:
    3186:	dc 01       	movw	r26, r24
    3188:	fc 01       	movw	r30, r24

0000318a <.L1^B1>:
    318a:	67 2f       	mov	r22, r23
    318c:	71 91       	ld	r23, Z+
    318e:	77 23       	and	r23, r23
    3190:	e1 f7       	brne	.-8      	; 0x318a <.L1^B1>
    3192:	32 97       	sbiw	r30, 0x02	; 2
    3194:	04 c0       	rjmp	.+8      	; 0x319e <.L3^B1>

00003196 <.L2^B1>:
    3196:	7c 91       	ld	r23, X
    3198:	6d 93       	st	X+, r22
    319a:	70 83       	st	Z, r23
    319c:	62 91       	ld	r22, -Z

0000319e <.L3^B1>:
    319e:	ae 17       	cp	r26, r30
    31a0:	bf 07       	cpc	r27, r31
    31a2:	c8 f3       	brcs	.-14     	; 0x3196 <.L2^B1>
    31a4:	08 95       	ret

000031a6 <_exit>:
    31a6:	f8 94       	cli

000031a8 <__stop_program>:
    31a8:	ff cf       	rjmp	.-2      	; 0x31a8 <__stop_program>
